ccollections
Counter
p0
((dp1
S'in thecloset'
p2
I1
sS''
p3
I7
sS'funny boyfriends'
p4
I1
sS'yellow'
p5
I1
sS'protest'
p6
I1
sS'transgender athletes'
p7
I1
sS'hey arnold'
p8
I1
sS'thirst'
p9
I3
sS'lgbt india'
p10
I1
sS'andro'
p11
I1
sS'integrity'
p12
I1
sS'bishop melvintalbert'
p13
I1
sS'relationships'
p14
I24
sS'courtney wilson'
p15
I1
sS'sexual assault'
p16
I2
sS'tweet'
p17
I2
sS'tony abbott'
p18
I3
sS'democratic primary'
p19
I2
sS'arsenio hall'
p20
I1
sS'tyler oakley'
p21
I1
sS'mick jagger'
p22
I1
sS'aclu lambda legal titleix'
p23
I1
sS'pantone'
p24
I1
sS'tania safi'
p25
I2
sS'teaching'
p26
I1
sS'sorry'
p27
I1
sS'pride'
p28
I25
sS'tell us about yourselfie'
p29
I1
sS'alberta schools'
p30
I1
sS'that momentwhen'
p31
I1
sS'cruising'
p32
I1
sS'internet'
p33
I1
sS'nyc pride marchproposal'
p34
I1
sS'misunderstanding'
p35
I1
sS'captainmorganus'
p36
I1
sS'pirate wedding'
p37
I1
sS'photo essay'
p38
I1
sS'georgia'
p39
I4
sS'funny moments'
p40
I1
sS'month'
p41
I1
sS'department of education'
p42
I2
sS'bathhouse raids'
p43
I1
sS'school'
p44
I4
sS'safe sex'
p45
I1
sS'baking'
p46
I1
sS'companies'
p47
I1
sS'john mccain'
p48
I1
sS'bill condon'
p49
I1
sS'golden globes'
p50
I1
sS'the cw'
p51
I2
sS'sun wenlin'
p52
I1
sS'new book'
p53
I5
sS'clothes'
p54
I3
sS'jamaica'
p55
I1
sS'have ahart'
p56
I1
sS'cher'
p57
I1
sS'quilt'
p58
I1
sS'person ofinterest'
p59
I2
sS'weddings'
p60
I11
sS'pride month  2016 BuzzFeed'
p61
I1
sS'pulse'
p62
I2
sS'patricia highsmith'
p63
I1
sS'manus'
p64
I1
sS'blue'
p65
I1
sS'brexit'
p66
I1
sS'gay wedding'
p67
I1
sS'gov bob'
p68
I1
sS'lesbian wedding'
p69
I1
sS'hate'
p70
I1
sS'cooking'
p71
I1
sS'gay pride'
p72
I7
sS'what book should every lgbt person read in theirlifetime'
p73
I1
sS'apichatpong weerasethakul'
p74
I1
sS'jonah hill'
p75
I1
sS'bianca delrio'
p76
I1
sS'tips'
p77
I3
sS'discrimination'
p78
I10
sS'disney'
p79
I2
sS'nyc pride'
p80
I4
sS'survivors orlandoshooting'
p81
I1
sS'francois ozon'
p82
I1
sS'lesbian relationships'
p83
I2
sS'men'
p84
I6
sS'philip groenweghe'
p85
I1
sS'lgbt'
p86
I454
sS'apartment'
p87
I1
sS'china'
p88
I8
sS'spencer claus'
p89
I1
sS'sasha allen'
p90
I1
sS'mary stuart masterson'
p91
I1
sS'kids'
p92
I1
sS'wedding bands'
p93
I1
sS'oxford'
p94
I3
sS'spin class'
p95
I1
sS'lgbt representation'
p96
I4
sS'creampuffs'
p97
I1
sS'jonathan demme'
p98
I1
sS'magic magic'
p99
I1
sS'the 100'
p100
I3
sS'military'
p101
I3
sS'dominican republic'
p102
I2
sS'same sex'
p103
I2
sS'lili taylor'
p104
I1
sS'human rights'
p105
I2
sS'transgender law'
p106
I1
sS'leather daddy'
p107
I1
sS'campaign'
p108
I1
sS'orlando attack'
p109
I5
sS'gay directors'
p110
I1
sS'awkward couples'
p111
I3
sS'straight people'
p112
I1
sS'galpals'
p113
I1
sS'cerebral palsy'
p114
I1
sS'gay suluhusband'
p115
I1
sS'lgbt groups gunreform'
p116
I1
sS'buzzfeed community'
p117
I1
sS'gender queer'
p118
I3
sS'sweater'
p119
I1
sS'cate blanchett'
p120
I3
sS'nanccy reagan'
p121
I1
sS'music'
p122
I9
sS'bdsm'
p123
I1
sS'indiana'
p124
I4
sS'hari nef'
p125
I1
sS'jazz jennings'
p126
I2
sS'marriage equality'
p127
I38
sS'gay characters'
p128
I1
sS'queer characters'
p129
I4
sS'hot guys'
p130
I3
sS'campaign forhouston'
p131
I2
sS'hahd'
p132
I1
sS'regina king'
p133
I1
sS'a nightmare on elmstreet'
p134
I1
sS'little mantate'
p135
I2
sS'grief'
p136
I1
sS'straight girl'
p137
I1
sS'adult'
p138
I6
sS'im special'
p139
I1
sS'shoot'
p140
I1
sS'room'
p141
I1
sS'punk rockband'
p142
I1
sS'eclipse'
p143
I1
sS'which "rupaul\'s all stars drag race" season 2 queen areyou?'
p144
I1
sS'movies'
p145
I11
sS'first time'
p146
I2
sS'tinder'
p147
I4
sS'republican national convention'
p148
I1
sS'holland taylor'
p149
I4
sS'same-sex marriage'
p150
I19
sS'matilda'
p151
I1
sS'boyfriend'
p152
I5
sS'anal sex'
p153
I11
sS'but im a cheerleader'
p154
I1
sS'florida'
p155
I3
sS'17 totally inspiring books with great lgbt lead characters'
p156
I1
sS'dolphin'
p157
I1
sS'india'
p158
I10
sS'books essay'
p159
I1
sS'anti-gay'
p160
I4
sS'law  2016 BuzzFeed'
p161
I1
sS'things all bisexual people can relateto'
p162
I1
sS'counseling'
p163
I1
sS'indian twitter'
p164
I1
sS'aligarh muslim university'
p165
I1
sS'new delhi'
p166
I2
sS'kinnars'
p167
I1
sS'bi erasure'
p168
I2
sS'rhps'
p169
I1
sS'travel'
p170
I3
sS'mathai talkies'
p171
I1
sS'hot'
p172
I3
sS'writers'
p173
I3
sS'ent'
p174
I2
sS'top orbottom'
p175
I2
sS'interview'
p176
I3
sS'bernie telsey'
p177
I1
sS'beach'
p178
I1
sS'grindr'
p179
I12
sS'kenworthy'
p180
I1
sS'serenity'
p181
I1
sS'brian greig'
p182
I1
sS'beauty'
p183
I2
sS'transgender surgery'
p184
I1
sS'insecure'
p185
I1
sS'lgbtq'
p186
I18
sS'nightmare on elmstreet'
p187
I1
sS'keep the lightson'
p188
I1
sS'lgbti'
p189
I10
sS'moira smith'
p190
I1
sS'dutee chand'
p191
I1
sS'batman vsuperman'
p192
I1
sS'eddie redmayne'
p193
I2
sS'law'
p194
I2
sS'lesbian'
p195
I77
sS'women of thehour'
p196
I2
sS'north carolina bathroombill'
p197
I1
sS'third'
p198
I1
sS'gilmore girls'
p199
I1
sS'austin'
p200
I2
sS'taylor mac'
p201
I1
sS'childhood'
p202
I1
sS'daredevil'
p203
I1
sS'candid'
p204
I1
sS'eeoc'
p205
I6
sS'captain america'
p206
I1
sS'harlem'
p207
I1
sS'genderqueer'
p208
I3
sS'wine'
p209
I1
sS'julie taymor'
p210
I1
sS'dr pierre broussard'
p211
I1
sS'nothing leftunsaid'
p212
I1
sS'danielle brooks'
p213
I1
sS'london'
p214
I5
sS'monica loera'
p215
I1
sS'japan'
p216
I1
sS'noah galvin'
p217
I1
sS'mark patton'
p218
I1
sS'sex guide'
p219
I1
sS'before'
p220
I1
sS'gregg araki'
p221
I1
sS'beautiful photos'
p222
I1
sS'i am aghost'
p223
I1
sS'new years resolution'
p224
I1
sS'writing'
p225
I2
sS'better'
p226
I1
sS'mississippi anti-lgbtbill'
p227
I1
sS'you and your significantother'
p228
I1
sS'original content'
p229
I9
sS'oz buzz'
p230
I1
sS'samira wiley'
p231
I2
sS'rodney sumter'
p232
I1
sS'yaaass'
p233
I6
sS'unbreakable kimmyschmidt'
p234
I3
sS'babies'
p235
I1
sS'glastonbury'
p236
I1
sS'united methodistchurch'
p237
I2
sS'ben still'
p238
I1
sS'gaydar'
p239
I1
sS'schools'
p240
I4
sS'sex work'
p241
I2
sS'pride parade'
p242
I5
sS'pjs'
p243
I1
sS'bryan adams'
p244
I2
sS'dany xyara'
p245
I1
sS'robin dejesus'
p246
I1
sS'cable'
p247
I1
sS'texas lawsuit'
p248
I1
sS'arrested'
p249
I1
sS'l'
p250
I1
sS'detroit'
p251
I1
sS'queer pride'
p252
I1
sS'choir'
p253
I1
sS'trans inmates'
p254
I1
sS'oahu'
p255
I1
sS'anglican communion'
p256
I2
sS'ellen degeneres'
p257
I4
sS'skylar jung'
p258
I1
sS'series'
p259
I1
sS'ex-gay'
p260
I1
sS'lea delaria'
p261
I2
sS'intersexstories'
p262
I1
sS'skins'
p263
I1
sS'sally field'
p264
I2
sS'magic mike'
p265
I1
sS'julie kleiner'
p266
I1
sS'navy'
p267
I1
sS'aids'
p268
I13
sS'teen vogue'
p269
I1
sS'ru'
p270
I14
sS'canweguess'
p271
I1
sS'bella heathcote'
p272
I1
sS'pop music'
p273
I2
sS'jena malone'
p274
I1
sS'orphan black'
p275
I1
sS'david mundell'
p276
I1
sS'private schools'
p277
I1
sS'newly married'
p278
I1
sS'medicine'
p279
I1
sS'surprise'
p280
I2
sS'oconnell'
p281
I1
sS'peter thiel'
p282
I1
sS'gop'
p283
I4
sS'kat blaque'
p284
I1
sS'grease'
p285
I1
sS'new york city commission on humanrights'
p286
I1
sS'bffeatures'
p287
I2
sS'intersex'
p288
I5
sS'video transgenderattack'
p289
I1
sS'glenn geller'
p290
I1
sS'aboriginal'
p291
I2
sS'delphine'
p292
I1
sS'wynona earp'
p293
I1
sS'sulu isgay'
p294
I1
sS'enlightened'
p295
I1
sS'anal sex horrorstories'
p296
I1
sS'far fromheaven'
p297
I1
sS'trans livesmatter'
p298
I1
sS'fall inlove'
p299
I1
sS'photographers'
p300
I1
sS'david bulmer-rizzi'
p301
I1
sS'darren stein'
p302
I1
sS'european film'
p303
I1
sS'blissfully yours'
p304
I1
sS'000'
p305
I1
sS'trump caitlynjenner'
p306
I1
sS'this year'
p307
I1
sS'moving'
p308
I1
sS'mens health'
p309
I2
sS'body issue'
p310
I1
sS'andaluz football federation'
p311
I1
sS'i amlove'
p312
I1
sS'transdar'
p313
I1
sS'washroom sign'
p314
I1
sS'big day'
p315
I1
sS'marsha pjohnson'
p316
I1
sS'north carolina'
p317
I31
sS'nhs'
p318
I9
sS'lakme fashionweek'
p319
I1
sS'transgender attack'
p320
I1
sS'comic'
p321
I2
sS'canadian navy'
p322
I1
sS'hate crimes'
p323
I1
sS'basketball'
p324
I1
sS'pride party'
p325
I1
sS'freddy krueger'
p326
I1
sS'top'
p327
I4
sS'engagement'
p328
I2
sS'girls'
p329
I5
sS'fiction'
p330
I3
sS'election 2016'
p331
I1
sS'new york'
p332
I11
sS'phones'
p333
I1
sS'hollywood'
p334
I3
sS'dogs'
p335
I2
sS'canada blood'
p336
I1
sS'rocky horror'
p337
I1
sS'murder'
p338
I1
sS'the accused'
p339
I1
sS'joanna chilcoat'
p340
I1
sS'beauty pageant'
p341
I1
sS'addition'
p342
I1
sS'wisdom'
p343
I1
sS'virtual realityporn'
p344
I1
sS'western'
p345
I1
sS'honolulu'
p346
I1
sS'wardrobe'
p347
I1
sS'greenwich village'
p348
I1
sS'toronto'
p349
I11
sS'trek'
p350
I1
sS'anxiety'
p351
I5
sS'target'
p352
I1
sS'drug resistance'
p353
I1
sS'nyc subway'
p354
I1
sS'fairytale'
p355
I1
sS'medley'
p356
I1
sS'silly'
p357
I1
sS'attitude magazine'
p358
I1
sS'pansexuality'
p359
I1
sS'paige degrassi'
p360
I1
sS'warren entsch'
p361
I1
sS'fashion'
p362
I12
sS'boston'
p363
I1
sS'inside out'
p364
I1
sS'orange is the new blacktrailer'
p365
I1
sS'confessions whisper'
p366
I1
sS'fandom'
p367
I3
sS'talking'
p368
I1
sS'adhd'
p369
I2
sS'nba'
p370
I2
sS'closeted'
p371
I1
sS'ian mckellen'
p372
I2
sS'orgasms'
p373
I2
sS'flash mob'
p374
I1
sS'joint funeral'
p375
I1
sS'feelings that'
p376
I1
sS'south australia'
p377
I2
sS'chris leinonen'
p378
I1
sS'garth greenwell'
p379
I1
sS'broadway musicals'
p380
I1
sS'fort leavenworth'
p381
I1
sS'alain guiraudie'
p382
I1
sS'greg gianforte'
p383
I1
sS'gay families'
p384
I1
sS'state of theunion'
p385
I1
sS'false policereport'
p386
I1
sS'have a hartday'
p387
I1
sS'queer baiting'
p388
I1
sS'tvlab'
p389
I1
sS'victoria'
p390
I2
sS'name change'
p391
I1
sS'james deen'
p392
I2
sS'pride month'
p393
I2
sS'gif interview'
p394
I1
sS'oc squadla'
p395
I1
sS'lgbt parents'
p396
I1
sS'alabama'
p397
I3
sS'united nations'
p398
I5
sS'doj'
p399
I1
sS'singer'
p400
I1
sS'family equalitycouncil'
p401
I1
sS'indian standup'
p402
I1
sS'hogr social'
p403
I1
sS'elliot morlaes'
p404
I1
sS'globaleg'
p405
I4
sS'medical'
p406
I1
sS'camp'
p407
I3
sS'dog'
p408
I1
sS'desert hearts'
p409
I2
sS'megan rapinoe'
p410
I1
sS'chutney popcorn'
p411
I1
sS'camh'
p412
I1
sS'tech'
p413
I2
sS'today show'
p414
I1
sS'boyfriends'
p415
I2
sS'mating'
p416
I1
sS'marvel'
p417
I2
sS'poppers'
p418
I3
sS'bipolar disorder'
p419
I2
sS'finding dory'
p420
I1
sS'dont ask donttell'
p421
I2
sS'queen'
p422
I1
sS'boracay'
p423
I1
sS'emmy'
p424
I1
sS'fair day'
p425
I1
sS'colors'
p426
I1
sS'charlie sheen'
p427
I1
sS'lisa scott'
p428
I1
sS'transgender children'
p429
I1
sS'queer'
p430
I46
sS'gun violence prevention'
p431
I1
sS'dame ednaeverage'
p432
I1
sS'yaaasss'
p433
I1
sS'transgender  2016 BuzzFeed'
p434
I1
sS'hrt'
p435
I1
sS'ocd'
p436
I1
sS'glaad mediaawards'
p437
I2
sS'the tellshow'
p438
I3
sS'mukul mudgal'
p439
I1
sS'lube'
p440
I2
sS'john krokidas'
p441
I1
sS'which gay icon areyou?'
p442
I1
sS'arcus foundation'
p443
I1
sS'hrc'
p444
I4
sS'personality'
p445
I1
sS'kitten nursery'
p446
I1
sS'eating disorder'
p447
I1
sS'colorful'
p448
I1
sS'promises promises'
p449
I1
sS'sex workers'
p450
I2
sS'dc'
p451
I1
sS'little mermaid'
p452
I1
sS'gillian triggs'
p453
I1
sS'wedding'
p454
I10
sS'report'
p455
I1
sS'gender bending'
p456
I1
sS'lgbt youth'
p457
I3
sS'bar'
p458
I2
sS'greens'
p459
I1
sS'donald trump transgender bathrooms'
p460
I1
sS'kashish mumbai international filmfestival'
p461
I1
sS'gnc'
p462
I2
sS'emt'
p463
I1
sS'same sexmarriage'
p464
I6
sS'robert dold'
p465
I1
sS'same-sex adoption'
p466
I1
sS'anton yelchin'
p467
I1
sS'ban'
p468
I1
sS'uswnt'
p469
I1
sS'north carolina high schools peppersprays'
p470
I1
sS'alycia debnam-carey'
p471
I1
sS'jordan brown'
p472
I3
sS'i amcait'
p473
I1
sS'isadora cerullo'
p474
I1
sS'fdny couple engaged nyc prideparade'
p475
I1
sS'zara ungendered'
p476
I1
sS'lemonade'
p477
I1
sS'newtown'
p478
I2
sS'diego boneta'
p479
I1
sS'fail'
p480
I8
sS'hero'
p481
I8
sS'asha greyjoy'
p482
I1
sS'hp mendoza'
p483
I1
sS'trans woman'
p484
I2
sS'susan sarandon'
p485
I1
sS'inappropriate'
p486
I1
sS'hiv  2016 BuzzFeed'
p487
I1
sS'cdnops'
p488
I1
sS'olympics'
p489
I11
sS'senate president stanley rosenberg'
p490
I1
sS'faces youll recognise'
p491
I1
sS'glasgow'
p492
I1
sS'in public'
p493
I1
sS'terms'
p494
I1
sS'felony'
p495
I1
sS'potty parity'
p496
I1
sS'sex reassignmentsurgery'
p497
I1
sS'censorship'
p498
I1
sS'cophine'
p499
I1
sS'modeling'
p500
I1
sS'mansfield park'
p501
I1
sS'cop'
p502
I1
sS'peel region'
p503
I1
sS'san diego gay menschorus'
p504
I1
sS'country'
p505
I1
sS'ncaa'
p506
I2
sS'the ex'
p507
I2
sS'crazy ex-girlfriend'
p508
I1
sS'elle fanning'
p509
I1
sS'stewart mcdonald'
p510
I1
sS'changing yourname'
p511
I1
sS'sydney university'
p512
I1
sS'eyesight'
p513
I1
sS'couplegoals'
p514
I1
sS'royal'
p515
I1
sS'anti-discrimination'
p516
I1
sS'height'
p517
I1
sS'trust'
p518
I1
sS'australiavotes2016'
p519
I3
sS'question'
p520
I1
sS'bathroom'
p521
I6
sS'dating shows'
p522
I1
sS'amber heard girlfriend'
p523
I1
sS'referendum'
p524
I2
sS'axis ofawesome'
p525
I1
sS'cub'
p526
I1
sS'life'
p527
I2
sS'anti-trans'
p528
I2
sS'families'
p529
I1
sS'valentines day'
p530
I3
sS'drugs'
p531
I2
sS'republicans'
p532
I1
sS'derek kitchen'
p533
I1
sS'best of'
p534
I1
sS'wachowski siblings'
p535
I1
sS'rowers'
p536
I1
sS'against me northcarolina'
p537
I1
sS'gloucester county schoolboard'
p538
I3
sS'haters'
p539
I1
sS'orlando shootingarrest'
p540
I1
sS'roy haylock'
p541
I1
sS'kentucky'
p542
I2
sS'gnb'
p543
I1
sS'georigia'
p544
I1
sS'jennifer laude'
p545
I2
sS'creative weddings'
p546
I1
sS'jess tomillero benavente'
p547
I1
sS'gerontophilia'
p548
I1
sS'relationship  2016 BuzzFeed'
p549
I1
sS'felicity huffman'
p550
I1
sS'murders'
p551
I1
sS'lesbian women'
p552
I1
sS'slc'
p553
I1
sS'1840'
p554
I1
sS'doha'
p555
I1
sS'mexico'
p556
I2
sS'personalityquiz'
p557
I4
sS'webseries'
p558
I1
sS'la pride'
p559
I2
sS'caitlyn jenner hardest part about being awoman'
p560
I1
sS'young people'
p561
I2
sS'casting'
p562
I1
sS'coming out'
p563
I34
sS'high society'
p564
I1
sS'nike'
p565
I1
sS'amber heardassault'
p566
I1
sS'the 27 greatest "american horror story" quotes of alltime'
p567
I1
sS'tucking'
p568
I2
sS'new york city fire department'
p569
I1
sS'bodypositivityweek'
p570
I6
sS'star world'
p571
I1
sS'zoolander'
p572
I1
sS'80s'
p573
I1
sS'y films'
p574
I1
sS'hu mingliang'
p575
I1
sS'convictions'
p576
I1
sS'yash rajfilms'
p577
I1
sS'immigration'
p578
I3
sS'texas ltgov'
p579
I1
sS'bathroom policy'
p580
I1
sS'elle'
p581
I1
sS'hyperandrogenism'
p582
I1
sS'slovenia'
p583
I1
sS'trans couple'
p584
I1
sS'characters'
p585
I1
sS'transgender call centerworkers'
p586
I1
sS'jealous'
p587
I1
sS'kill yourdarlings'
p588
I1
sS'article 377'
p589
I1
sS'thoughts'
p590
I1
sS'kenny moffit'
p591
I1
sS'jason rothenberg'
p592
I1
sS'golden gaytimes'
p593
I1
sS'trans motherhood'
p594
I1
sS'Inc has been editing this post since .'
p595
I35
sS'ocean'
p596
I1
sS'dustane'
p597
I2
sS'heteronormative'
p598
I1
sS'g-a-y'
p599
I1
sS'mother'
p600
I1
sS'sex and thecity'
p601
I1
sS'dadt'
p602
I1
sS'american crime'
p603
I2
sS'photo projects'
p604
I1
sS'musical'
p605
I2
sS'dads'
p606
I1
sS'scissoring'
p607
I1
sS'sport figures'
p608
I1
sS'panic attacks'
p609
I1
sS'photo'
p610
I1
sS'edmonton'
p611
I3
sS'mysterious skin'
p612
I1
sS'bill maher'
p613
I1
sS'jennifer lawrence'
p614
I1
sS'facts'
p615
I2
sS'yes'
p616
I1
sS'kevin nadal'
p617
I1
sS'john ridley'
p618
I1
sS'vice president joebiden'
p619
I1
sS'family'
p620
I11
sS'wear itpurple'
p621
I1
sS'photographer'
p622
I1
sS'character'
p623
I1
sS'sochi'
p624
I2
sS'brie larson'
p625
I1
sS'jonathan nolan'
p626
I1
sS'jon cunningham'
p627
I1
sS'focus on thefamily'
p628
I1
sS'prison'
p629
I7
sS'flannel'
p630
I1
sS'peter hinwood'
p631
I1
sS'years andyears'
p632
I1
sS'lcr'
p633
I1
sS'the gay womenchannel'
p634
I1
sS'rnc'
p635
I1
sS'kate mckinnon'
p636
I2
sS'the wildones'
p637
I1
sS'st kitts'
p638
I1
sS'stds'
p639
I2
sS'girls lost'
p640
I1
sS'cultural criticism'
p641
I3
sS'boxer'
p642
I1
sS'barack obama'
p643
I1
sS'nasty ba'
p644
I1
sS'wedding dress'
p645
I1
sS'designers'
p646
I1
sS'the 90s'
p647
I1
sS'growing upgay'
p648
I1
sS'books every lgbt person has toread'
p649
I1
sS'rhea butcher'
p650
I2
sS'stephen sondheim'
p651
I1
sS'latino'
p652
I3
sS'nude'
p653
I1
sS'joe biden'
p654
I1
sS'orlando'
p655
I11
sS'womens suits'
p656
I1
sS'night'
p657
I1
sS'vr porn'
p658
I1
sS'sky cubacub'
p659
I1
sS'antique'
p660
I1
sS'two dads'
p661
I1
sS'paige michalchuk'
p662
I1
sS'old'
p663
I1
sS'lilly wachowskitrans'
p664
I1
sS'kicked out'
p665
I1
sS'vice president'
p666
I1
sS'beth ditto'
p667
I1
sS'clubs'
p668
I1
sS'laura grace jones north carolinaconcert'
p669
I1
sS'susan brooks thistlethwaite'
p670
I1
sS'justin simien'
p671
I1
sS'bestof2015oz'
p672
I1
sS'queerbaiting'
p673
I1
sS'michael johnson'
p674
I2
sS'cannes 2016'
p675
I1
sS'bottom'
p676
I4
sS'fox'
p677
I3
sS'funny boyfriend'
p678
I2
sS'ice'
p679
I1
sS'the beaver'
p680
I1
sS'cne'
p681
I1
sS'beating'
p682
I1
sS'yara greyjoy'
p683
I2
sS'christmas'
p684
I5
sS'bangladesh bloggers'
p685
I1
sS'television critics association'
p686
I1
sS'star wars'
p687
I2
sS'ben affleck'
p688
I1
sS'lacour'
p689
I1
sS'wedding photos'
p690
I1
sS'burn'
p691
I1
sS'illustration'
p692
I1
sS'herrin'
p693
I1
sS'bestof2015'
p694
I18
sS'weird couple'
p695
I3
sS'sexual awakening'
p696
I1
sS'pll'
p697
I1
sS'herpes'
p698
I1
sS'body diversity'
p699
I1
sS'photo project'
p700
I1
sS'eric abetz'
p701
I1
sS'vaginas'
p702
I2
sS'time magazine'
p703
I1
sS'army'
p704
I2
sS'transphobia andbiphobia'
p705
I1
sS'photo series'
p706
I2
sS'queer subtext'
p707
I1
sS'magazine'
p708
I2
sS'high school'
p709
I3
sS'book'
p710
I1
sS'security council'
p711
I1
sS'sex horrorstories'
p712
I1
sS'selfie'
p713
I1
sS'fan service'
p714
I1
sS'corporate equalityindex'
p715
I1
sS'ahs'
p716
I1
sS'right'
p717
I1
sS'alix dobkin'
p718
I1
sS'smart girls'
p719
I1
sS'oral sex'
p720
I3
sS'parade'
p721
I1
sS'the lword'
p722
I6
sS'preemption'
p723
I1
sS'bisexual girls'
p724
I1
sS'flying'
p725
I1
sS'jealousy'
p726
I1
sS'raped'
p727
I1
sS'senate'
p728
I1
sS'robbie rogers'
p729
I1
sS'aboriginal and torres straitislander'
p730
I2
sS'sex questions'
p731
I1
sS'grooms'
p732
I1
sS'room novel'
p733
I1
sS'gemma whelan'
p734
I1
sS'supreme court ofindia'
p735
I1
sS'batman'
p736
I2
sS'age differences'
p737
I1
sS'justine greening'
p738
I1
sS'aspca'
p739
I1
sS'maxim'
p740
I1
sS'feminine'
p741
I2
sS'boys dontcry'
p742
I3
sS'mothers day'
p743
I1
sS'oral sextips'
p744
I1
sS'buzzfeedrequestlive'
p745
I1
sS'test b'
p746
I8
sS'test c'
p747
I10
sS'tasmania'
p748
I1
sS'test a'
p749
I6
sS'test d'
p750
I1
sS'transgender canadians'
p751
I1
sS'isis'
p752
I1
sS'her story'
p753
I1
sS'come back'
p754
I1
sS'gender queerclothing'
p755
I1
sS'trans rights'
p756
I13
sS'lgbtlab'
p757
I14
sS'non-discrimination'
p758
I1
sS'conrad vernon'
p759
I1
sS'danish girl'
p760
I1
sS'mr robot'
p761
I1
sS'emotional'
p762
I1
sS'zodiac'
p763
I1
sS'daddy'
p764
I1
sS'mtf'
p765
I1
sS'propaganda'
p766
I1
sS'wrybabez'
p767
I1
sS'election'
p768
I1
sS'proud'
p769
I1
sS'gay australia'
p770
I1
sS'omar mateen  2016 BuzzFeed'
p771
I1
sS'center for diseasecontrol'
p772
I1
sS'lgbt activism'
p773
I2
sS'lady gaga'
p774
I5
sS'add yours'
p775
I22
sS'anti-transgender'
p776
I1
sS'ship'
p777
I3
sS'petition'
p778
I1
sS'jerrod carmichael'
p779
I1
sS'physical'
p780
I1
sS'visibleme'
p781
I1
sS'lgbt students'
p782
I1
sS'hate crime'
p783
I3
sS'man charged for putting acid in a lube dispenser'
p784
I1
sS'actor'
p785
I3
sS'edward scissorhands'
p786
I1
sS'tutorial'
p787
I1
sS'test'
p788
I1
sS'tie'
p789
I1
sS'transgender'
p790
I192
sS'nyc pride2016'
p791
I1
sS"we know if you're a top or bottom based on which diva youchoose"
p792
I1
sS'alana allen'
p793
I1
sS'picture'
p794
I1
sS'models'
p795
I1
sS'canadian lesbians'
p796
I1
sS'football'
p797
I1
sS'qatar'
p798
I1
sS'body week'
p799
I1
sS'gmcla'
p800
I1
sS'humor'
p801
I3
sS'skar triesgrindr'
p802
I1
sS'the momentit'
p803
I1
sS'painting'
p804
I1
sS'flag'
p805
I1
sS'ottawa'
p806
I2
sS'batwoman'
p807
I1
sS'being queer'
p808
I1
sS'harish iyer'
p809
I1
sS'premier league'
p810
I1
sS'rep david cicilline'
p811
I1
sS'songs'
p812
I1
sS'daniel andrews'
p813
I2
sS'90s costumes'
p814
I1
sS'hormone therapy'
p815
I1
sS'celebs'
p816
I1
sS'original design'
p817
I5
sS'cocoabutter'
p818
I1
sS'bi-curious'
p819
I1
sS'butt sex'
p820
I2
sS'same-sex wedding'
p821
I2
sS'milk'
p822
I2
sS'joe mahshie'
p823
I1
sS'suicide'
p824
I4
sS'gloucester county'
p825
I1
sS'gaygaygay'
p826
I1
sS'greg plageman'
p827
I1
sS'sex toy'
p828
I1
sS'father'
p829
I1
sS'gay in manchester'
p830
I1
sS'aligarh trailer'
p831
I1
sS'gay andlesbian'
p832
I1
sS'sotu'
p833
I1
sS'g-spot'
p834
I1
sS'lgbt prideparade'
p835
I1
sS'sir ianmckellen'
p836
I1
sS'share yours'
p837
I1
sS'puppy pride'
p838
I1
sS'degrassi'
p839
I1
sS'based on your choice ofemoji'
p840
I1
sS'ghostbusters'
p841
I2
sS'anonymous'
p842
I1
sS'kitten'
p843
I1
sS'jamie babbit'
p844
I1
sS'drag'
p845
I9
sS'officer bob'
p846
I1
sS'alliance defendingfreedom'
p847
I2
sS'50 shades of greymovie'
p848
I1
sS'lynn shelton'
p849
I1
sS'body hair'
p850
I2
sS'philippines'
p851
I10
sS'hawaii'
p852
I2
sS'gay sexclub'
p853
I1
sS'danielle jacobs'
p854
I1
sS'diy'
p855
I1
sS'rnc 2016'
p856
I2
sS'kids book'
p857
I1
sS'guy'
p858
I1
sS'governor patmccrory'
p859
I2
sS'unaware'
p860
I1
sS'brave'
p861
I1
sS'keanu reeves'
p862
I1
sS'ben melzer'
p863
I1
sS'porn'
p864
I7
sS'unusual weddings'
p865
I1
sS'all about mymother'
p866
I1
sS'birth certificate'
p867
I1
sS'center stage'
p868
I1
sS'hiv aids'
p869
I1
sS'cost'
p870
I1
sS'shirts'
p871
I1
sS'spirit awards'
p872
I1
sS'foreign films'
p873
I1
sS'kim minhee'
p874
I1
sS'emilia clarke'
p875
I1
sS'lena waithe'
p876
I4
sS'jeopardy'
p877
I1
sS'staz nair'
p878
I1
sS'olly alexander'
p879
I2
sS'mardigras2016'
p880
I13
sS'andrew cuomo'
p881
I1
sS'wedding ideas'
p882
I2
sS'booklet'
p883
I1
sS'illustrations'
p884
I1
sS'international'
p885
I1
sS'lisa cholodenko'
p886
I1
sS'david baldwin'
p887
I3
sS'maryam keshavarz'
p888
I1
sS'hb2'
p889
I16
sS'hairy'
p890
I1
sS'daniel letterle'
p891
I1
sS'clerk'
p892
I1
sS'makeup'
p893
I5
sS'family court'
p894
I2
sS'costumes'
p895
I1
sS'christopher karas'
p896
I1
sS'mother inlaw'
p897
I1
sS'subway trainvideo'
p898
I1
sS'baseball'
p899
I1
sS'dear emma'
p900
I1
sS'houston equal rights ordinance'
p901
I10
sS'trans guy'
p902
I1
sS'teacher'
p903
I1
sS'life essay'
p904
I3
sS'hbo'
p905
I2
sS'condoms'
p906
I2
sS'new books'
p907
I2
sS'sexual orientation'
p908
I3
sS'canadian'
p909
I1
sS'lee daniels'
p910
I1
sS'historical offences'
p911
I1
sS'women'
p912
I12
sS'the forceawakens'
p913
I1
sS'triad'
p914
I1
sS"what's your most awkward anal sex horrorstory?"
p915
I1
sS'montreal'
p916
I1
sS'hhs'
p917
I2
sS'nikhil'
p918
I1
sS'love'
p919
I35
sS'instas'
p920
I1
sS'cheryl strayed'
p921
I1
sS'shaming'
p922
I1
sS'durham'
p923
I1
sS'gaysi'
p924
I1
sS'aligarh'
p925
I1
sS'fbi'
p926
I1
sS'crime'
p927
I2
sS'emmys'
p928
I2
sS'lgbti health'
p929
I1
sS'barry bostwick'
p930
I1
sS'lgbt petition'
p931
I1
sS'transrights'
p932
I55
sS'sports'
p933
I7
sS'reality tv'
p934
I1
sS'msm'
p935
I1
sS'go fish'
p936
I1
sS'iphone'
p937
I3
sS'pastor val rosenquist'
p938
I1
sS'films'
p939
I4
sS'australian'
p940
I1
sS'prep'
p941
I8
sS'aspirin'
p942
I1
sS'sylvia rivera'
p943
I1
sS'web series'
p944
I5
sS'queer and invisible'
p945
I1
sS'club'
p946
I2
sS'camsoda'
p947
I1
sS'buggery law'
p948
I1
sS'ausvotes2016'
p949
I3
sS'queer kids'
p950
I1
sS'genderqueer authors'
p951
I1
sS'androgynous style'
p952
I1
sS'the handmaiden'
p953
I1
sS'equal employment opportunity commission'
p954
I3
sS'mermaids'
p955
I1
sS'kiss cam'
p956
I1
sS'filipino'
p957
I2
sS'netflix'
p958
I7
sS'rep. charliedent'
p959
I1
sS'cat'
p960
I1
sS'filipina'
p961
I1
sS'bob mcnair'
p962
I1
sS'trans'
p963
I57
sS'newspapers'
p964
I1
sS'geeky'
p965
I2
sS'pflag'
p966
I3
sS'trump'
p967
I3
sS'1980s'
p968
I1
sS'mr gay india2016'
p969
I1
sS'john howard'
p970
I1
sS'indian transgender community'
p971
I1
sS'funny husband'
p972
I3
sS'bessie'
p973
I1
sS'facebook realnames'
p974
I1
sS'clothing'
p975
I6
sS'tatiana maslany'
p976
I1
sS'hot doctors'
p977
I1
sS'pink'
p978
I1
sS'drama'
p979
I3
sS'blood ban'
p980
I3
sS'equalops'
p981
I1
sS'winter'
p982
I1
sS'inheritance'
p983
I1
sS'game ofthrones'
p984
I2
sS'murder  2016 BuzzFeed'
p985
I1
sS'title vii'
p986
I9
sS'sundance'
p987
I2
sS'nyc'
p988
I3
sS'lesbian subtext'
p989
I1
sS'proposal nycpride'
p990
I1
sS'george clooney'
p991
I1
sS'public health'
p992
I1
sS'may kieu'
p993
I1
sS'edinburgh'
p994
I2
sS'jazz'
p995
I2
sS'paramount'
p996
I1
sS'obama administration'
p997
I2
sS'sexqs'
p998
I2
sS'sacrifice'
p999
I1
sS'insecurities'
p1000
I1
sS'bill shorten'
p1001
I1
sS'diva'
p1002
I1
sS'tbt'
p1003
I1
sS'tall boyfriend'
p1004
I1
sS'mac'
p1005
I1
sS'rupaul dragrace'
p1006
I1
sS'date'
p1007
I2
sS'wikileaks'
p1008
I1
sS'heroes'
p1009
I1
sS'rupauls dragrace'
p1010
I4
sS'nomination'
p1011
I1
sS'avengers'
p1012
I1
sS'things you never knew about andycohen'
p1013
I1
sS'mayweather'
p1014
I1
sS'ashley diamond'
p1015
I1
sS'house speaker robertdeleo'
p1016
I1
sS'trans bathroom'
p1017
I1
sS'brazilian wax'
p1018
I1
sS'june'
p1019
I1
sS'2016 BuzzFeed'
p1020
I1
sS'judd apatow'
p1021
I1
sS'gay people'
p1022
I1
sS'representation'
p1023
I4
sS'women in hollywood'
p1024
I1
sS'queer bars'
p1025
I1
sS'talk'
p1026
I1
sS'hiv vaccine'
p1027
I1
sS'toronto pride'
p1028
I5
sS'cute'
p1029
I8
sS'frank oceanalbum'
p1030
I1
sS'rapid fire'
p1031
I1
sS'paramore'
p1032
I1
sS'101india'
p1033
I1
sS'haircut'
p1034
I1
sS'ani news'
p1035
I1
sS'animals'
p1036
I3
sS'kate moennig'
p1037
I1
sS'heather donovan'
p1038
I1
sS'tiernan brady'
p1039
I1
sS'lena dunham'
p1040
I2
sS'curly'
p1041
I3
sS'shakira sison'
p1042
I1
sS'montana family foundation'
p1043
I1
sS'united kingdom'
p1044
I1
sS'platform'
p1045
I2
sS'winnipeg'
p1046
I1
sS'tweets'
p1047
I2
sS'norway'
p1048
I1
sS'texas'
p1049
I3
sS'personality quiz'
p1050
I1
sS'pero like'
p1051
I1
sS'ash carter'
p1052
I2
sS'non'
p1053
I1
sS'michael merichko'
p1054
I1
sS'benedict cumberbatch'
p1055
I1
sS'ira sachs'
p1056
I1
sS'moms'
p1057
I1
sS'drag queen'
p1058
I6
sS'indigenous'
p1059
I2
sS'housemates'
p1060
I1
sS'homosexuals'
p1061
I1
sS'safari'
p1062
I1
sS'the television critics association'
p1063
I1
sS'in-laws'
p1064
I1
sS'sikander kher'
p1065
I1
sS'anti-lgbt'
p1066
I1
sS'hb 2'
p1067
I4
sS'artist'
p1068
I3
sS'samantha thomas'
p1069
I1
sS'gay couple'
p1070
I5
sS'changing room'
p1071
I1
sS'dysphoria'
p1072
I3
sS'rupauls all stars dragrace'
p1073
I1
sS'youtube  2016 BuzzFeed'
p1074
I1
sS'women directors'
p1075
I1
sS'anti-lgbt laws'
p1076
I1
sS'photoshoot'
p1077
I2
sS'aspergers'
p1078
I1
sS'same-sex marriage georgebrandis'
p1079
I1
sS'elle uk'
p1080
I1
sS'primaries 2016'
p1081
I1
sS'elise bauman'
p1082
I2
sS'joshua mcgill'
p1083
I1
sS'kane'
p1084
I1
sS'ru paul'
p1085
I1
sS'ex'
p1086
I2
sS'eu'
p1087
I1
sS'josh danielgreen'
p1088
I1
sS'ice cream'
p1089
I1
sS'canada'
p1090
I29
sS'ryan cassata'
p1091
I1
sS'dear whitepeople'
p1092
I1
sS'transgender bathroom'
p1093
I1
sS'glastonbury 2016'
p1094
I1
sS'air force'
p1095
I1
sS'mashrou leila'
p1096
I1
sS'same-sex marraige'
p1097
I1
sS'looking'
p1098
I1
sS'investigation'
p1099
I1
sS'process of'
p1100
I1
sS'northern ireland'
p1101
I1
sS'sex discrimination'
p1102
I1
sS'us marines'
p1103
I1
sS'trans youth'
p1104
I1
sS'humpday'
p1105
I1
sS'phyllis nagy'
p1106
I1
sS'gay tribe'
p1107
I1
sS'monster'
p1108
I1
sS'north carolinahb2'
p1109
I2
sS"products that'll help you enjoy sex a littlemore"
p1110
I1
sS'europride'
p1111
I1
sS'flyer'
p1112
I1
sS'california'
p1113
I3
sS'grandma'
p1114
I1
sS'bfmpexperiment'
p1115
I5
sS'food network'
p1116
I1
sS'times ofindia'
p1117
I1
sS'bad rapvideos'
p1118
I1
sS'patrick cubbedge'
p1119
I1
sS'brasil'
p1120
I1
sS'anderson cooper'
p1121
I1
sS'tiffany taylor'
p1122
I1
sS'sacha baroncohen'
p1123
I1
sS'vidcom'
p1124
I1
sS'transition'
p1125
I6
sS'bisexuality'
p1126
I4
sS'senate joint resolution39'
p1127
I1
sS'british'
p1128
I1
sS'honest'
p1129
I2
sS'aline broshmckenna'
p1130
I1
sS'rocky horror pictureshow'
p1131
I2
sS'best time of theyear'
p1132
I1
sS'worse thananimals'
p1133
I1
sS'cheese'
p1134
I1
sS'logo tv'
p1135
I1
sS'st charles'
p1136
I1
sS'lesbian loves'
p1137
I1
sS'becky harris'
p1138
I1
sS'scream queen'
p1139
I1
sS'spanish'
p1140
I1
sS'ring'
p1141
I1
sS'grease lightning'
p1142
I1
sS'pokemon'
p1143
I3
sS'size'
p1144
I1
sS'sheep'
p1145
I1
sS'city'
p1146
I1
sS'bakla'
p1147
I1
sS'filipino american heritagemonth'
p1148
I1
sS'bathroom law'
p1149
I3
sS'gay guys'
p1150
I1
sS'lady dynamite'
p1151
I1
sS'escort'
p1152
I1
sS'sexually transmitteddiseases'
p1153
I1
sS'practice recklessoptimism'
p1154
I1
sS'nhs england'
p1155
I1
sS'mermaid'
p1156
I1
sS'fashion designers'
p1157
I1
sS'eyes'
p1158
I1
sS'foreplay'
p1159
I1
sS'timothy brown'
p1160
I1
sS'anna kendrick'
p1161
I1
sS'steven cutts'
p1162
I1
sS'australian tv'
p1163
I1
sS'immigration and customs enforcement'
p1164
I1
sS'michael silverman'
p1165
I1
sS'social news'
p1166
I68
sS'population'
p1167
I1
sS'cult classics'
p1168
I1
sS'12'
p1169
I1
sS'rugged'
p1170
I1
sS'a singleman'
p1171
I1
sS'17'
p1172
I1
sS'dead lesbiansyndrome'
p1173
I1
sS'buzzfeed'
p1174
I13
sS'which tegan and sara song are you based on your zodiacsign?'
p1175
I1
sS'tipping thevelvet'
p1176
I1
sS'transgender education'
p1177
I1
sS'transgdender'
p1178
I1
sS'drag race'
p1179
I3
sS'daenerys targaryen'
p1180
I1
sS'victorian'
p1181
I1
sS'lgbt video'
p1182
I1
sS'mitch mcconnell'
p1183
I1
sS'gender norms'
p1184
I1
sS'marines'
p1185
I1
sS'mothers andsons'
p1186
I1
sS'russia'
p1187
I13
sS'gaysi india'
p1188
I1
sS'nglcc'
p1189
I1
sS'illness'
p1190
I1
sS'orlando shooting'
p1191
I31
sS'best ahsquotes'
p1192
I1
sS'sulu'
p1193
I2
sS'argument'
p1194
I1
sS'needle exchange'
p1195
I1
sS'lword'
p1196
I1
sS'comedian'
p1197
I1
sS'rent'
p1198
I1
sS'department of health and humanservices'
p1199
I1
sS'msm blood donationban'
p1200
I1
sS'superman'
p1201
I1
sS'gay family'
p1202
I1
sS'ro'
p1203
I1
sS'atlah worldwide missionarychurch'
p1204
I1
sS'wcw'
p1205
I1
sS'fashionable'
p1206
I1
sS'ideas'
p1207
I1
sS'animation'
p1208
I2
sS'rumaan alam'
p1209
I1
sS'online'
p1210
I2
sS'sorority'
p1211
I1
sS'deadliest massshooting'
p1212
I1
sS'domestic violence'
p1213
I4
sS'jenny boylan'
p1214
I1
sS'teen lgbt'
p1215
I1
sS'anal exams'
p1216
I1
sS'topping'
p1217
I2
sS'paypal'
p1218
I4
sS'getting yourperiod'
p1219
I1
sS'gay dads'
p1220
I1
sS'bradley police'
p1221
I1
sS'hannah hart'
p1222
I1
sS'lgbt movies'
p1223
I1
sS'ausvotes'
p1224
I1
sS'id buzz'
p1225
I1
sS'assault'
p1226
I2
sS'anti-lgbt states'
p1227
I1
sS'america'
p1228
I1
sS'queens'
p1229
I1
sS'human rightscampaign'
p1230
I9
sS'stigmas'
p1231
I1
sS'the last fiveyears'
p1232
I1
sS'hikaru sulu'
p1233
I1
sS'tweet thread'
p1234
I1
sS'reaction'
p1235
I1
sS'the frigid winter blues summed up'
p1236
I1
sS'don dixon'
p1237
I1
sS'lgbt pride'
p1238
I2
sS'masturbation'
p1239
I2
sS'shop'
p1240
I1
sS'celebrity instagrams'
p1241
I1
sS'relationship goals'
p1242
I4
sS'show'
p1243
I1
sS'classic old school artdeco'
p1244
I1
sS'national center for transgenderequality'
p1245
I1
sS'difficult people'
p1246
I1
sS'cara delevingne'
p1247
I1
sS'another couple'
p1248
I1
sS'lady gagaorlando'
p1249
I1
sS'sexual transmission'
p1250
I1
sS'gbf'
p1251
I1
sS'dick'
p1252
I1
sS'playing cards'
p1253
I1
sS'lgbt inschools'
p1254
I1
sS'tears'
p1255
I1
sS'indian internet'
p1256
I1
sS'black'
p1257
I3
sS'fred nile'
p1258
I1
sS'outrage'
p1259
I1
sS'north carolina pepperspray'
p1260
I1
sS'androgyny'
p1261
I1
sS'lgbt incanada'
p1262
I1
sS'w kamaubell'
p1263
I1
sS'my own privateidaho'
p1264
I1
sS'salma hayek'
p1265
I1
sS'north carolina governor patmcrory'
p1266
I1
sS'crystal fairy'
p1267
I1
sS'lost girl'
p1268
I1
sS'kristina hernandez'
p1269
I1
sS'australian christianlob'
p1270
I3
sS'tegan andsara'
p1271
I3
sS'tdor'
p1272
I2
sS'mike quigley'
p1273
I1
sS'movie musicals'
p1274
I1
sS'lip service'
p1275
I1
sS'home for theholidays'
p1276
I3
sS'heartwarming'
p1277
I1
sS'lesbian films'
p1278
I1
sS'amanda'
p1279
I1
sS'lgbt filmmakers'
p1280
I1
sS'bend it likebeckham'
p1281
I1
sS'makeup for transwomen'
p1282
I1
sS'espn'
p1283
I2
sS'superdry'
p1284
I1
sS'non-binary gender'
p1285
I1
sS'the cooperunion'
p1286
I1
sS'sexy men'
p1287
I1
sS'bruce springsteen'
p1288
I1
sS'college'
p1289
I1
sS'awkward sexstories'
p1290
I1
sS'male model'
p1291
I1
sS'as youare'
p1292
I1
sS'calendar'
p1293
I1
sS'sport'
p1294
I1
sS'trans history'
p1295
I1
sS'robert shaye'
p1296
I1
sS'weibo'
p1297
I1
sS'gay marriage'
p1298
I6
sS'school formal'
p1299
I1
sS'feuds'
p1300
I1
sS'canadian bloodservices'
p1301
I1
sS'come back to the five and dime jimmy dean jimmydean'
p1302
I1
sS'hollstein'
p1303
I1
sS'gaga'
p1304
I1
sS'sofonda cox'
p1305
I1
sS'shepparton'
p1306
I2
sS'teens'
p1307
I5
sS'islam'
p1308
I1
sS'mosquita ymari'
p1309
I1
sS'adult toys'
p1310
I1
sS'style'
p1311
I17
sS'breast surgery'
p1312
I1
sS'breast augmentation'
p1313
I1
sS'queer sex'
p1314
I1
sS'star trek'
p1315
I3
sS'active shootertarget'
p1316
I1
sS'juliana arroyo'
p1317
I1
sS'daria'
p1318
I1
sS'coloring book'
p1319
I1
sS'north carolina bathroomlaw'
p1320
I1
sS'sony hacking'
p1321
I1
sS'flipped'
p1322
I21
sS'spoken wordpoem'
p1323
I1
sS'remake'
p1324
I1
sS'transphobic attack'
p1325
I1
sS'donna deitch'
p1326
I1
sS'expression'
p1327
I1
sS'gaysi family'
p1328
I1
sS'pakistan'
p1329
I1
sS'lgbtq community'
p1330
I1
sS'amber heard assaultcase'
p1331
I1
sS'period'
p1332
I1
sS'homosexuality'
p1333
I4
sS'anti'
p1334
I1
sS'rugrats'
p1335
I1
sS'69'
p1336
I1
sS'bizarre'
p1337
I1
sS'zoe dolan'
p1338
I1
sS'tropes'
p1339
I1
sS'katrina pierson'
p1340
I1
sS'turkey'
p1341
I1
sS'rose quartz'
p1342
I1
sS'love dose'
p1343
I1
sS'jan morris'
p1344
I1
sS'cycling'
p1345
I1
sS'deirdre mccloskey'
p1346
I1
sS'dolphin square'
p1347
I1
sS'gay man'
p1348
I1
sS'ucla'
p1349
I1
sS'house bill1523'
p1350
I1
sS'percentagequiz'
p1351
I1
sS'sausage party'
p1352
I1
sS'confessions'
p1353
I1
sS'sisterhood'
p1354
I1
sS'lesbina'
p1355
I1
sS'carmilla'
p1356
I2
sS'shopping'
p1357
I5
sS'go-go dancers'
p1358
I1
sS'republican governors association'
p1359
I1
sS'blurb'
p1360
I1
sS'tiger'
p1361
I1
sS'photos'
p1362
I4
sS'jaime camil'
p1363
I1
sS'cannes filmfestival'
p1364
I1
sS'hashtag'
p1365
I1
sS'psychotherapy'
p1366
I1
sS'prowler gay pornawards'
p1367
I2
sS'meagan taylor'
p1368
I1
sS'teen makeover'
p1369
I1
sS'religious school'
p1370
I2
sS'shane jenek'
p1371
I1
sS'pete gardner'
p1372
I1
sS'salt lakecity'
p1373
I1
sS'lucy lawless'
p1374
I1
sS'scottish conservatives'
p1375
I1
sS'all indiabakchod'
p1376
I1
sS'end ofyear'
p1377
I1
sS'cast'
p1378
I1
sS'honolulu police department'
p1379
I1
sS'star trekbeyond'
p1380
I2
sS'ivf'
p1381
I2
sS'non-binary'
p1382
I4
sS'bathrooms'
p1383
I20
sS'gal pals'
p1384
I2
sS'natasha lyonne'
p1385
I1
sS'mischa barton'
p1386
I1
sS'canon'
p1387
I1
sS'aunt flo'
p1388
I1
sS'sleeping'
p1389
I1
sS'couples'
p1390
I12
sS'joce pritchett'
p1391
I1
sS'good'
p1392
I1
sS'gov charliebaker'
p1393
I1
sS'plus-size fashion'
p1394
I1
sS'kenya'
p1395
I2
sS'restroom'
p1396
I7
sS'engagement rings'
p1397
I1
sS'jim crow'
p1398
I1
sS'delhi queer prideparade'
p1399
I1
sS'tlc'
p1400
I1
sS'gay sex'
p1401
I5
sS'medicine hat'
p1402
I1
sS'doctor'
p1403
I1
sS'gay startrek'
p1404
I1
sS'hookingup'
p1405
I1
sS'same'
p1406
I6
sS'2016 lapride'
p1407
I1
sS'food'
p1408
I4
sS'heartbreak'
p1409
I1
sS'fruit fly'
p1410
I1
sS'catfish'
p1411
I1
sS'vandalism'
p1412
I1
sS'trans women'
p1413
I8
sS'auspol'
p1414
I23
sS'bill 1523'
p1415
I1
sS'homophobia'
p1416
I12
sS'anushka sharma'
p1417
I1
sS'homophobic'
p1418
I1
sS'week'
p1419
I1
sS'oil'
p1420
I1
sS'love actually'
p1421
I1
sS'director'
p1422
I1
sS'running'
p1423
I1
sS'preliminary injunction'
p1424
I1
sS'miss saigon'
p1425
I1
sS'advertisement'
p1426
I1
sS'reconciling ministriesnetwork'
p1427
I1
sS'movie stills'
p1428
I1
sS'awkward anal sexstories'
p1429
I1
sS'rebirth garments'
p1430
I1
sS'geeta parulekar'
p1431
I1
sS'bondage'
p1432
I1
sS'charges'
p1433
I1
sS'alexander london'
p1434
I1
sS'kylie jenner on ellen degeneres'
p1435
I1
sS'award show'
p1436
I1
sS'squadgoals'
p1437
I1
sS'netflix trailer'
p1438
I1
sS'therapy'
p1439
I4
sS'which "the real o\'neals" character are you based on your zodiacsign?'
p1440
I1
sS'sex toys'
p1441
I3
sS'computer games'
p1442
I1
sS'raffi freedman-gurspan'
p1443
I1
sS'bette midler issued an apology after tweeting an insensitive joke about caitlynjenner'
p1444
I1
sS'charged'
p1445
I1
sS'summer'
p1446
I2
sS'brown folk'
p1447
I1
sS'money'
p1448
I1
sS'hamlet 2'
p1449
I1
sS'emma donoghue'
p1450
I1
sS'restrooms'
p1451
I10
sS'its only the end of theworld'
p1452
I1
sS'ryan mccartan'
p1453
I1
sS'kill'
p1454
I1
sS'kids company'
p1455
I1
sS'trans kids'
p1456
I2
sS'isabelle huppert'
p1457
I1
sS'death'
p1458
I1
sS'cancer'
p1459
I3
sS'two menkissing'
p1460
I1
sS'feminist'
p1461
I1
sS'edward norton'
p1462
I1
sS'simon pegg'
p1463
I1
sS'risa hontiveros'
p1464
I1
sS'pat mccrory'
p1465
I3
sS'natasha negovanlis'
p1466
I2
sS'anwesh kumarsahoo'
p1467
I1
sS'naz foundation'
p1468
I1
sS'bfukheart'
p1469
I1
sS'transgender day of remembrance'
p1470
I1
sS'gov patmcrory'
p1471
I1
sS'xena'
p1472
I1
sS'skier'
p1473
I1
sS'last weektonight'
p1474
I1
sS'same sex relationships'
p1475
I1
sS'androgynous model'
p1476
I1
sS'arianna grande'
p1477
I1
sS'michael emerson'
p1478
I1
sS'delhi'
p1479
I4
sS'ame'
p1480
I1
sS'virginia'
p1481
I1
sS'home office'
p1482
I1
sS'a biggersplash'
p1483
I1
sS'preference'
p1484
I1
sS'mom'
p1485
I2
sS'fellowfeed'
p1486
I1
sS'homohomo'
p1487
I1
sS'world'
p1488
I1
sS'fiona smyth'
p1489
I1
sS'armed forces'
p1490
I1
sS'the neondemon'
p1491
I1
sS'blood donations'
p1492
I3
sS'the realoneals'
p1493
I2
sS'trans sexwork'
p1494
I1
sS'patrick'
p1495
I1
sS'samantha jones'
p1496
I1
sS'carrie bradshaw'
p1497
I1
sS'donations'
p1498
I2
sS'captain awkward'
p1499
I1
sS'bone marrow'
p1500
I1
sS'alberta education'
p1501
I1
sS'western europe'
p1502
I1
sS'bi visibility'
p1503
I1
sS'gay pornstars'
p1504
I1
sS'twelve'
p1505
I1
sS'homicides'
p1506
I1
sS'bury yourgays'
p1507
I2
sS'the pastyshow'
p1508
I1
sS'unnatural sex'
p1509
I1
sS'madrid'
p1510
I1
sS'glbt'
p1511
I1
sS'lebanon'
p1512
I1
sS'competition'
p1513
I1
sS'cbs tv'
p1514
I1
sS'oscars'
p1515
I7
sS'butt'
p1516
I3
sS'fatwa'
p1517
I1
sS'bisexual men'
p1518
I1
sS'images'
p1519
I1
sS'rudrani chauhan'
p1520
I1
sS'viral'
p1521
I40
sS'mental health'
p1522
I9
sS'poll'
p1523
I7
sS'funny couples'
p1524
I3
sS'civil unions'
p1525
I3
sS'goldenglobes'
p1526
I1
sS'ive heard the mermaidssinging'
p1527
I1
sS'war onterror'
p1528
I1
sS'gwen araujo'
p1529
I1
sS'lgbt kids'
p1530
I1
sS'ali forneycenter'
p1531
I1
sS'original photo'
p1532
I5
sS'drag queens'
p1533
I4
sS'gay bathhouse'
p1534
I1
sS'title xi'
p1535
I1
sS'911'
p1536
I1
sS'rhys ernst'
p1537
I2
sS'personal essay'
p1538
I7
sS'erika marrero'
p1539
I1
sS'bisexual video'
p1540
I2
sS'lezzzz'
p1541
I1
sS'the rocky horror pictureshow'
p1542
I2
sS'dustan'
p1543
I1
sS'victoria justice'
p1544
I1
sS'iconic'
p1545
I1
sS'can youpick'
p1546
I1
sS'uk news'
p1547
I1
sS'powerpuff girls'
p1548
I1
sS'kristen wiig'
p1549
I1
sS'embarassing'
p1550
I1
sS'james parker'
p1551
I1
sS'phil bryant'
p1552
I2
sS'ozceleb'
p1553
I1
sS'stonewall in'
p1554
I1
sS'aca'
p1555
I1
sS'canceled shows'
p1556
I1
sS'jeep'
p1557
I1
sS'violence'
p1558
I2
sS'malcolm turnbull'
p1559
I4
sS'soho  2016 BuzzFeed'
p1560
I1
sS'acl'
p1561
I1
sS'justice department'
p1562
I3
sS'mara wilson'
p1563
I1
sS'greg tiernan'
p1564
I1
sS'ask thegays'
p1565
I1
sS'andrew broad'
p1566
I1
sS'anti-immigration'
p1567
I1
sS'little shop ofhorrors'
p1568
I1
sS'tribe'
p1569
I1
sS'ladies'
p1570
I2
sS'general services administration'
p1571
I1
sS'happy'
p1572
I1
sS'image'
p1573
I1
sS'season 8'
p1574
I1
sS'oc squadsf'
p1575
I2
sS'snapchat'
p1576
I2
sS'vacation'
p1577
I1
sS'united states'
p1578
I2
sS'emt proposal'
p1579
I1
sS'bangladesh killing'
p1580
I1
sS'quiz'
p1581
I33
sS'dnc 2016'
p1582
I2
sS'alexis knox'
p1583
I1
sS'lyle shelton'
p1584
I1
sS'season 4'
p1585
I1
sS'her'
p1586
I1
sS'age ofconsent'
p1587
I1
sS'season 3'
p1588
I1
sS'transexual'
p1589
I1
sS'philadelphia'
p1590
I1
sS'lol'
p1591
I17
sS'alexandra billings'
p1592
I2
sS'cats'
p1593
I3
sS'lions'
p1594
I1
sS'hot frame'
p1595
I1
sS'transitioning'
p1596
I2
sS'breast cancer'
p1597
I1
sS'fashion designer'
p1598
I1
sS'media'
p1599
I3
sS'saris'
p1600
I1
sS'piper chapman'
p1601
I1
sS'love story'
p1602
I1
sS'bill deblasio'
p1603
I1
sS'poet'
p1604
I1
sS'hiv prevention'
p1605
I2
sS'podcast'
p1606
I4
sS'south asian'
p1607
I2
sS'handsome'
p1608
I1
sS'barber shop'
p1609
I1
sS'buzzfeedoz'
p1610
I3
sS'transgender day of visibility'
p1611
I1
sS'gay rights'
p1612
I6
sS'romantic'
p1613
I1
sS'comics'
p1614
I3
sS'dress code'
p1615
I2
sS'pope francis'
p1616
I2
sS'gay rug'
p1617
I1
sS'pokemon go'
p1618
I1
sS'the gospel atcolonus'
p1619
I1
sS'white house'
p1620
I2
sS'toilet'
p1621
I1
sS'the barefootcontessa'
p1622
I1
sS'ad'
p1623
I1
sS'lgbt television'
p1624
I1
sS'cinema'
p1625
I1
sS'anti-trans bills'
p1626
I1
sS'gender roles'
p1627
I1
sS'same sexcouples'
p1628
I1
sS'hijra'
p1629
I2
sS'cbs'
p1630
I2
sS'health care'
p1631
I2
sS'together'
p1632
I1
sS'logo'
p1633
I1
sS'girlfriend'
p1634
I8
sS'politics'
p1635
I3
sS'butt quiz'
p1636
I1
sS'uae  2016 BuzzFeed'
p1637
I1
sS'film'
p1638
I10
sS'rajkummar rao'
p1639
I1
sS'wedding athome'
p1640
I1
sS'jodie foster'
p1641
I3
sS'university ofvictoria'
p1642
I1
sS'andy cohen'
p1643
I1
sS'international day against homophobia'
p1644
I1
sS'puppy'
p1645
I1
sS'nicky morgan'
p1646
I1
sS'katie heaney'
p1647
I1
sS'bernies sanders'
p1648
I1
sS'gay propaganda'
p1649
I3
sS'david bowie'
p1650
I4
sS'congress'
p1651
I2
sS'the loudhouse'
p1652
I1
sS'spoilers'
p1653
I1
sS'mental health week2015'
p1654
I3
sS'chelsea manning'
p1655
I1
sS'trending'
p1656
I1
sS'massachusetts'
p1657
I2
sS'queensland'
p1658
I1
sS'podgoals'
p1659
I1
sS'craig robinson'
p1660
I1
sS'trans parenting'
p1661
I1
sS'taylor blake'
p1662
I1
sS'curvy'
p1663
I1
sS'rich andpretty'
p1664
I1
sS'missouri'
p1665
I2
sS'bisexual characters'
p1666
I1
sS'gay sulu'
p1667
I1
sS'seth rogen'
p1668
I1
sS'colleges'
p1669
I1
sS'obama transgenderpolicy'
p1670
I1
sS'anglican'
p1671
I1
sS'rodney croome'
p1672
I1
sS'love winsfag'
p1673
I2
sS'weight loss'
p1674
I1
sS'homoeroticism'
p1675
I1
sS'transgenderrights'
p1676
I1
sS'gay film'
p1677
I1
sS'taylor swift'
p1678
I1
sS'children'
p1679
I3
sS'child abuse allegations'
p1680
I1
sS'peter paige'
p1681
I1
sS'aurora guerrero'
p1682
I1
sS'tv'
p1683
I11
sS'david hull'
p1684
I1
sS'wildfang'
p1685
I1
sS'dressing'
p1686
I1
sS'alberta'
p1687
I6
sS'health'
p1688
I10
sS'l word'
p1689
I2
sS'iui'
p1690
I1
sS'bangladesh killings'
p1691
I1
sS'woman'
p1692
I3
sS'legally blonde'
p1693
I1
sS'sarah paulson'
p1694
I4
sS'song'
p1695
I1
sS'hair loss'
p1696
I1
sS'horror'
p1697
I2
sS'selfies'
p1698
I2
sS'tdor 2016'
p1699
I1
sS'worst'
p1700
I1
sS'frankenstein'
p1701
I1
sS'dapper'
p1702
I3
sS'liberty counsel'
p1703
I1
sS'what belongs toyou'
p1704
I1
sS'fag'
p1705
I1
sS'kinky boots'
p1706
I1
sS'international transgender day of visibility'
p1707
I1
sS'heaven'
p1708
I1
sS'marriage licenses'
p1709
I1
sS'hunan province'
p1710
I1
sS'mothers'
p1711
I1
sS'celebrity'
p1712
I3
sS'ben carson'
p1713
I2
sS'lesbians'
p1714
I21
sS'hbcu'
p1715
I1
sS'zoolander 2'
p1716
I1
sS'anal'
p1717
I6
sS'pflag canada  2016 BuzzFeed'
p1718
I1
sS'ecco'
p1719
I1
sS'cookies'
p1720
I1
sS'iran'
p1721
I3
sS'instagram'
p1722
I11
sS'skiing'
p1723
I1
sS'juan guerrero'
p1724
I1
sS'lesbian dating'
p1725
I2
sS'arizona'
p1726
I1
sS'equal rights'
p1727
I1
sS'aziz ansari'
p1728
I1
sS'donald trump north carolina anti-lgbtlaw'
p1729
I1
sS'hairspray'
p1730
I1
sS'piper kerman'
p1731
I1
sS'dressing up'
p1732
I1
sS'nick wray'
p1733
I1
sS'90s'
p1734
I2
sS'abc'
p1735
I2
sS'menswear'
p1736
I2
sS'coming outletter'
p1737
I1
sS'male g-spot'
p1738
I1
sS'crush'
p1739
I4
sS'todd graff'
p1740
I1
sS'tyler ford'
p1741
I2
sS'public'
p1742
I1
sS'finding princecharming'
p1743
I1
sS'tattoos'
p1744
I1
sS'ellen page'
p1745
I4
sS'christian'
p1746
I1
sS'amber heard domesticviolence'
p1747
I1
sS'queer representation'
p1748
I4
sS'canada census2016'
p1749
I1
sS'gus kenworthy'
p1750
I4
sS'scott morrison'
p1751
I1
sS'she said'
p1752
I1
sS'the price ofsalt'
p1753
I1
sS'lea salonga'
p1754
I1
sS'belize'
p1755
I1
sS'gun safetyreform'
p1756
I1
sS'lambda legal'
p1757
I3
sS'fwd'
p1758
I1
sS'target bathroompolicy'
p1759
I1
sS'ina garten'
p1760
I1
sS'pics'
p1761
I1
sS'ozbuzz'
p1762
I1
sS'social'
p1763
I10
sS'identity'
p1764
I6
sS'2016 books'
p1765
I2
sS'cross-sex hormones'
p1766
I1
sS'sonam kapoor'
p1767
I1
sS'target boycott'
p1768
I1
sS'dog walking'
p1769
I1
sS'goodluck jonathan'
p1770
I1
sS'archbishop canterbury'
p1771
I1
sS'ozpop'
p1772
I1
sS'adidas'
p1773
I2
sS'buzzshift'
p1774
I7
sS'obamacare'
p1775
I1
sS'freedom for all americans'
p1776
I2
sS'solitude'
p1777
I1
sS'satc'
p1778
I1
sS'disgusting'
p1779
I1
sS'dual lives'
p1780
I1
sS'2000s'
p1781
I1
sS'12 days of christmas'
p1782
I1
sS'new zealand'
p1783
I1
sS'orientation'
p1784
I1
sS'gun violence'
p1785
I1
sS'sunil pal'
p1786
I1
sS'omg'
p1787
I4
sS'tere bin laden dead oralive'
p1788
I1
sS'chuck hughes'
p1789
I1
sS'khar'
p1790
I1
sS'pixar'
p1791
I1
sS'israel'
p1792
I2
sS'engaged'
p1793
I1
sS'ariel shaffir'
p1794
I1
sS'sausage partymovie'
p1795
I1
sS'funny video'
p1796
I1
sS'rep charliedent'
p1797
I1
sS'makeovers'
p1798
I1
sS'jillian holtzmann'
p1799
I1
sS'perez hilton'
p1800
I1
sS'lesbian princess'
p1801
I1
sS'living together'
p1802
I1
sS'kanye west'
p1803
I1
sS'jeffrey tambor'
p1804
I1
sS'science'
p1805
I5
sS'dental dam'
p1806
I1
sS'cat fishing'
p1807
I1
sS'hollywood georgiaanti'
p1808
I1
sS'im bored'
p1809
I1
sS'anastasia kuba'
p1810
I1
sS'wrestler'
p1811
I1
sS'dating apps'
p1812
I1
sS'hong kong'
p1813
I1
sS'buzzfeed couple'
p1814
I3
sS'history'
p1815
I2
sS'beautiful'
p1816
I1
sS'cra64'
p1817
I1
sS'love wins'
p1818
I2
sS'pansexual'
p1819
I2
sS'biden'
p1820
I1
sS'i went to nyc all alone to love myself and it was weirdly beautiful'
p1821
I1
sS'lesbian video'
p1822
I2
sS'washington state'
p1823
I2
sS'scruff'
p1824
I2
sS'dress'
p1825
I2
sS'hbcus'
p1826
I1
sS'woman of the yearawards'
p1827
I1
sS'neil patrickharris'
p1828
I1
sS'ordinance'
p1829
I1
sS'clarke'
p1830
I1
sS'parentingweekridealong'
p1831
I1
sS'discrimination law'
p1832
I1
sS'canada 2015'
p1833
I1
sS'jenna dewan tatumdancing'
p1834
I1
sS'stis'
p1835
I2
sS'ghostbustersbadge'
p1836
I1
sS'fake news'
p1837
I1
sS'non binary'
p1838
I1
sS'robert simms'
p1839
I1
sS'communicating'
p1840
I1
sS'advice'
p1841
I9
sS'jordan shalloub'
p1842
I1
sS'questioning'
p1843
I1
sS'france'
p1844
I2
sS'shooting'
p1845
I2
sS'softball'
p1846
I1
sS'the glorias'
p1847
I2
sS'james baldwin'
p1848
I1
sS'anthony venn-brown'
p1849
I1
sS'catholic church'
p1850
I2
sS'personalized businesscards'
p1851
I1
sS'final four'
p1852
I1
sS'twitter  2016 BuzzFeed'
p1853
I1
sS'family holidays'
p1854
I1
sS'author'
p1855
I1
sS'germaine greer'
p1856
I4
sS'vibrator'
p1857
I1
sS'flannel shirts'
p1858
I1
sS'crafts'
p1859
I1
sS'banks'
p1860
I1
sS'gaysi zine'
p1861
I1
sS'lgbt wedding'
p1862
I1
sS'tiger beat'
p1863
I1
sS'nuetral bathroom'
p1864
I1
sS'george brandis'
p1865
I1
sS'nightmare on elm street2'
p1866
I1
sS'disabled'
p1867
I1
sS'rainbow rowell'
p1868
I1
sS'national news'
p1869
I1
sS'boy bands'
p1870
I1
sS'kyle hunter'
p1871
I1
sS'broadway'
p1872
I3
sS'gay pornawards'
p1873
I1
sS'astrology'
p1874
I2
sS'romance'
p1875
I5
sS'prowler'
p1876
I2
sS'fathers day'
p1877
I2
sS'8 women'
p1878
I1
sS'queerness'
p1879
I2
sS'pearl lovevideo'
p1880
I1
sS'beyonce'
p1881
I2
sS'tumblr roundup'
p1882
I1
sS'personality disorders'
p1883
I1
sS'speech'
p1884
I1
sS'roy cooper'
p1885
I2
sS'soccer'
p1886
I2
sS'lgbt sex'
p1887
I1
sS'manish paul'
p1888
I1
sS'barash'
p1889
I1
sS'irritable bowelsyndrome'
p1890
I1
sS'heterosexual prideday'
p1891
I1
sS'lana wachowski'
p1892
I1
sS'aids healthcare foundation'
p1893
I1
sS'andrew haigh'
p1894
I1
sS'oxford street'
p1895
I1
sS'jillian weiss'
p1896
I2
sS'party'
p1897
I1
sS'tara hudson'
p1898
I2
sS'srs'
p1899
I2
sS'sjr 39'
p1900
I1
sS'bollywood'
p1901
I2
sS'appropriate behavior'
p1902
I1
sS'kristen stewart'
p1903
I2
sS'wedding news'
p1904
I1
sS'teen wolf'
p1905
I1
sS'arianna vorderbruggen'
p1906
I1
sS'how to'
p1907
I2
sS'bathroom bill'
p1908
I5
sS'article 21'
p1909
I1
sS'christine forster'
p1910
I1
sS'coming outstories'
p1911
I2
sS'target transgender bathroomlaw'
p1912
I1
sS'luca guadagnino'
p1913
I1
sS'the narrowdoor'
p1914
I1
sS'friendship'
p1915
I3
sS'twomenkissing  2016 BuzzFeed'
p1916
I1
sS'reactions'
p1917
I1
sS'jason magbanua'
p1918
I1
sS'blood donation'
p1919
I1
sS'weight'
p1920
I1
sS'house'
p1921
I2
sS'oc girls'
p1922
I1
sS'gay blood'
p1923
I1
sS'brian mosteller'
p1924
I1
sS'amandla stenberg'
p1925
I3
sS'queer women'
p1926
I5
sS'operation'
p1927
I1
sS'penny wong'
p1928
I2
sS'dnc convention2016'
p1929
I3
sS'bccc'
p1930
I1
sS'transgender musician'
p1931
I1
sS'alcohol'
p1932
I1
sS'springst'
p1933
I1
sS'agender'
p1934
I3
sS'research'
p1935
I1
sS'hayden'
p1936
I1
sS'will andgrace'
p1937
I1
sS'bad education'
p1938
I1
sS'ftm'
p1939
I3
sS'lgbt rights'
p1940
I16
sS'ass'
p1941
I1
sS'martha plimpton'
p1942
I1
sS'circumstance'
p1943
I1
sS'trans issues'
p1944
I3
sS'wedding costs'
p1945
I1
sS'stock images'
p1946
I1
sS'henry cavill'
p1947
I1
sS'kayden clark'
p1948
I1
sS'recreations'
p1949
I1
sS'mitt romney'
p1950
I1
sS'ahmrc'
p1951
I1
sS'liz garbus'
p1952
I1
sS'greetings cards'
p1953
I1
sS'parenting week'
p1954
I1
sS'academy awards'
p1955
I4
sS'edie windsor'
p1956
I2
sS'syria'
p1957
I2
sS'blush'
p1958
I1
sS'mersquad'
p1959
I1
sS'bisexual representation'
p1960
I1
sS'trans man'
p1961
I1
sS'hyderabad'
p1962
I1
sS'santa monica'
p1963
I1
sS'chris pine'
p1964
I1
sS'pulse nightclub'
p1965
I3
sS'tldef'
p1966
I1
sS'tiny canadian'
p1967
I1
sS'north carolina bathroombill  2016 BuzzFeed'
p1968
I1
sS'hsv-1'
p1969
I1
sS'hsv-2'
p1970
I1
sS'the moment itbecomes'
p1971
I1
sS'home wedding'
p1972
I1
sS'young adultfiction'
p1973
I1
sS'genital herpes'
p1974
I1
sS'trans panic'
p1975
I1
sS'colombia'
p1976
I2
sS'anti-gay propagandalaw'
p1977
I2
sS'hiv criminalization'
p1978
I1
sS'prince william'
p1979
I1
sS'nyc prideparade'
p1980
I1
sS'h&m'
p1981
I1
sS'calosha'
p1982
I1
sS'jew'
p1983
I1
sS'pulse nightclubshooting'
p1984
I1
sS'homophobia in hollywood'
p1985
I1
sS'graham perrett'
p1986
I1
sS'hooking up'
p1987
I1
sS'tv couple'
p1988
I1
sS'wonderful'
p1989
I1
sS'valentines'
p1990
I3
sS'washington dc'
p1991
I1
sS'kim taeri'
p1992
I1
sS'nigeria'
p1993
I2
sS'jen'
p1994
I2
sS'sexual health'
p1995
I8
sS'james smith'
p1996
I1
sS'graphic novel'
p1997
I1
sS'break up'
p1998
I1
sS'relationship'
p1999
I10
sS'lesbian problems'
p2000
I1
sS'nyle dimarco'
p2001
I1
sS'intlops'
p2002
I2
sS'homicide'
p2003
I1
sS'jordan'
p2004
I1
sS'speaker paulryan'
p2005
I1
sS'theater'
p2006
I3
sS'tfw'
p2007
I1
sS'self care'
p2008
I2
sS'lgbt ccommunity'
p2009
I1
sS'obama'
p2010
I5
sS'std'
p2011
I2
sS'parentingweek'
p2012
I1
sS'assaulted'
p2013
I1
sS'transgender stories'
p2014
I1
sS'mark carson'
p2015
I1
sS'straight girls'
p2016
I1
sS'science news'
p2017
I14
sS'sti'
p2018
I2
sS'eating disorders'
p2019
I1
sS'youth'
p2020
I5
sS'breakups'
p2021
I3
sS'marriage'
p2022
I17
sS'bobrossclub'
p2023
I3
sS'anal horrorstories'
p2024
I1
sS'mardi gras2016'
p2025
I1
sS'the outs'
p2026
I1
sS'lgbt filmfestival'
p2027
I1
sS'aaron cfy'
p2028
I1
sS'gay video'
p2029
I3
sS'bmfpexperiment'
p2030
I1
sS'official'
p2031
I1
sS'title ii'
p2032
I1
sS'evelyne brochu'
p2033
I1
sS'chris mosier'
p2034
I1
sS'tyson fury'
p2035
I2
sS'tom daley'
p2036
I2
sS'almost adults'
p2037
I1
sS'gender essentialism'
p2038
I1
sS'sex tips'
p2039
I4
sS'prostate stimulation'
p2040
I1
sS'kat decastro'
p2041
I1
sS'dancing'
p2042
I2
sS'scotland'
p2043
I3
sS'south indian engagement'
p2044
I1
sS'demi lovato'
p2045
I1
sS'labour'
p2046
I1
sS'lgbt characters'
p2047
I3
sS'nicolas windingrefn'
p2048
I1
sS'rachel bloom'
p2049
I1
sS'donor'
p2050
I2
sS'bristol crowncourt'
p2051
I1
sS'gus kenworthy slopestyle'
p2052
I1
sS'gym'
p2053
I1
sS'ifc films'
p2054
I1
sS'money monster'
p2055
I3
sS'afghanistan'
p2056
I1
sS'gay porn'
p2057
I3
sS'orange is the new black season4'
p2058
I1
sS'pride toronto'
p2059
I1
sS'charlotte'
p2060
I3
sS'react'
p2061
I1
sS'lexa'
p2062
I2
sS'seasons'
p2063
I1
sS'rooney mara'
p2064
I3
sS'amber vanree  2016 BuzzFeed'
p2065
I1
sS'tiffany "new york" pollard is the host of a new dating show and it looks like reality tvgold'
p2066
I1
sS'gentrification'
p2067
I1
sS'chuck buck'
p2068
I1
sS'gmhc'
p2069
I1
sS'gender transition'
p2070
I1
sS'cover'
p2071
I1
sS'futbol'
p2072
I2
sS'canadian census'
p2073
I1
sS'body image'
p2074
I6
sS'bodies'
p2075
I1
sS'bi women'
p2076
I1
sS'parody'
p2077
I2
sS'james bradfield'
p2078
I1
sS'cdc'
p2079
I2
sS'drugstore cowboy'
p2080
I1
sS'celebrities'
p2081
I2
sS'okcupid'
p2082
I2
sS'charity  2016 BuzzFeed'
p2083
I1
sS'finn'
p2084
I1
sS'androgynous men'
p2085
I1
sS'jared'
p2086
I1
sS'kinsey'
p2087
I2
sS'angela bassett'
p2088
I1
sS'gay cures'
p2089
I1
sS'cebu'
p2090
I1
sS'bff'
p2091
I1
sS'ship it'
p2092
I1
sS'pearl love transgenderactivist'
p2093
I1
sS'affordable careact'
p2094
I1
sS'bfi'
p2095
I1
sS'kathleen wynne'
p2096
I1
sS'freddys revenge'
p2097
I1
sS'pretty'
p2098
I2
sS'wicked proposal'
p2099
I1
sS'pulse orlando'
p2100
I1
sS'body week2016'
p2101
I1
sS'relgious freedom'
p2102
I1
sS'grocery store'
p2103
I2
sS'polyamorous'
p2104
I1
sS'hir'
p2105
I1
sS'hiv'
p2106
I42
sS'nba all-stargame'
p2107
I1
sS'toddlers'
p2108
I1
sS'safe schools coalition'
p2109
I6
sS'front pages'
p2110
I1
sS'matteo renzi'
p2111
I1
sS'kfc yum brandfoods'
p2112
I1
sS'sex stories'
p2113
I1
sS'young friendship'
p2114
I1
sS'dustin'
p2115
I3
sS'relationshipgoals'
p2116
I1
sS'zodiac sign'
p2117
I1
sS'federal court'
p2118
I1
sS'childrens books'
p2119
I1
sS'nickelodeon'
p2120
I2
sS'investigate'
p2121
I1
sS'this freelife'
p2122
I1
sS'recommendations'
p2123
I3
sS'bfreader'
p2124
I14
sS'celeb'
p2125
I6
sS'body'
p2126
I2
sS'kids books'
p2127
I1
sS'living withhiv'
p2128
I1
sS'lgbtqi'
p2129
I1
sS'the todayshow'
p2130
I1
sS'intelligence'
p2131
I1
sS'sex'
p2132
I47
sS'jim caviezel'
p2133
I1
sS'sea'
p2134
I1
sS'poe'
p2135
I1
sS'foster child'
p2136
I1
sS'aberdeen'
p2137
I1
sS'10 ridiculously hot doctors guaranteed to give you afever'
p2138
I1
sS'darryl whitefeather'
p2139
I1
sS'gay cubs'
p2140
I1
sS'bride'
p2141
I1
sS'dorothy dutiel'
p2142
I1
sS'movie'
p2143
I5
sS'wow'
p2144
I2
sS'tribeca filmfestival'
p2145
I1
sS'calum mcswiggan'
p2146
I2
sS'religious protection'
p2147
I1
sS'barefoot contessa'
p2148
I1
sS'donate'
p2149
I1
sS'compliment'
p2150
I1
sS'android'
p2151
I2
sS'europe'
p2152
I3
sS'muslim'
p2153
I1
sS'watch what happenslive'
p2154
I1
sS'mike pence'
p2155
I1
sS'hair cut'
p2156
I1
sS'elections 2016'
p2157
I2
sS'andrew ahn'
p2158
I1
sS'jj abrams'
p2159
I1
sS'bathroom sign'
p2160
I1
sS'death trope'
p2161
I1
sS'sound ofmusic'
p2162
I1
sS'rowan-salisbury schoolboard'
p2163
I1
sS'the villagevoice'
p2164
I1
sS'courtney act'
p2165
I1
sS'indigenous affairs'
p2166
I1
sS'femininity'
p2167
I1
sS'conor collins'
p2168
I1
sS'gay bar'
p2169
I1
sS'microaggressions'
p2170
I1
sS'eggplant'
p2171
I1
sS'prop 1'
p2172
I1
sS'pda'
p2173
I2
sS'the silence of thelambs'
p2174
I2
sS'nonbinary'
p2175
I2
sS'glamour women of the yearawards'
p2176
I1
sS'reasons'
p2177
I1
sS'margaret cho'
p2178
I1
sS'truvada'
p2179
I17
sS'carpet squad'
p2180
I1
sS'log cabin republicans'
p2181
I3
sS'community'
p2182
I8
sS'alone'
p2183
I1
sS'sharmila nair'
p2184
I1
sS'tennessee'
p2185
I1
sS'scottish'
p2186
I1
sS'gavin grimm'
p2187
I3
sS'body positivityweek'
p2188
I3
sS'julia roberts'
p2189
I1
sS'political'
p2190
I1
sS'modern family'
p2191
I1
sS'emoji'
p2192
I1
sS'austin kaplan'
p2193
I1
sS'ireland'
p2194
I2
sS'portraits'
p2195
I2
sS'patriotism'
p2196
I1
sS'adoption'
p2197
I4
sS'angela burns'
p2198
I1
sS'el deseo'
p2199
I1
sS'modern'
p2200
I1
sS'gay'
p2201
I142
sS'what should your drag name be based on your choice ofemoji?'
p2202
I1
sS'elsa'
p2203
I1
sS'orange is the newblack'
p2204
I11
sS'oitnb'
p2205
I7
sS'basic training'
p2206
I1
sS'loch sheldrake'
p2207
I1
sS'brittany ashley'
p2208
I2
sS'carrie brownsteinwedding'
p2209
I1
sS'gab'
p2210
I1
sS'furiosa'
p2211
I1
sS'janet mock'
p2212
I2
sS'x-men'
p2213
I1
sS'time of themonth'
p2214
I1
sS'politician'
p2215
I1
sS'frozen'
p2216
I1
sS'sex toytips'
p2217
I1
sS'master ofnone'
p2218
I3
sS'boy abunda'
p2219
I1
sS'governor'
p2220
I1
sS'sexuality'
p2221
I12
sS'feminism'
p2222
I5
sS'behavior'
p2223
I2
sS'bette midler'
p2224
I1
sS'kissing'
p2225
I2
sS'larry'
p2226
I1
sS'atlantica'
p2227
I1
sS'guide'
p2228
I1
sS'australian artist'
p2229
I1
sS'love you todeath'
p2230
I1
sS'desiree akhavan'
p2231
I1
sS'hook up'
p2232
I1
sS'rio'
p2233
I2
sS'troye sivan'
p2234
I4
sS'adopt dontshop'
p2235
I1
sS'hustler white'
p2236
I1
sS'oral history'
p2237
I1
sS'funny'
p2238
I9
sS'troye'
p2239
I1
sS'italy'
p2240
I3
sS'fanservice'
p2241
I1
sS'otherwild'
p2242
I1
sS'eliza taylor'
p2243
I1
sS'bruce labruce'
p2244
I1
sS'shay'
p2245
I1
sS'rnc republican'
p2246
I1
sS'themed wedding'
p2247
I1
sS'reshel shah'
p2248
I1
sS'mental healthweek'
p2249
I2
sS'lgbt superheroes'
p2250
I1
sS'john cho'
p2251
I2
sS'mel gibson'
p2252
I1
sS'pop culture'
p2253
I1
sS'literature'
p2254
I1
sS'ahoyboy'
p2255
I1
sS'transgender use of restrooms'
p2256
I1
sS'gender reassignment'
p2257
I1
sS'costa rica'
p2258
I1
sS'holidays'
p2259
I2
sS'donald trump'
p2260
I8
sS'dana zzym'
p2261
I1
sS'moment'
p2262
I1
sS'gay refugees'
p2263
I1
sS'hansal mehta'
p2264
I1
sS'books that represent lgbt people accurately'
p2265
I1
sS'gus vansant'
p2266
I1
sS'charlie carver'
p2267
I2
sS'ab'
p2268
I2
sS'trans teens'
p2269
I1
sS'tituss burgess'
p2270
I1
sS'beanie'
p2271
I1
sS'butt stuff'
p2272
I2
sS'david krumholtz'
p2273
I1
sS'el salvador'
p2274
I2
sS'summer butt'
p2275
I1
sS'gsa'
p2276
I2
sS'massage'
p2277
I1
sS'a nightmare on elm street2'
p2278
I1
sS'calcutta'
p2279
I1
sS'nathan deal'
p2280
I1
sS'ambassador'
p2281
I1
sS'frozen 2'
p2282
I1
sS'target protest bathroomlaw'
p2283
I1
sS'bette porter'
p2284
I1
sS'gender dysphoria'
p2285
I2
sS'gay parents'
p2286
I2
sS'john tory'
p2287
I1
sS'genderfluid'
p2288
I1
sS'future isfemale'
p2289
I1
sS'questions'
p2290
I4
sS'richard obrien'
p2291
I1
sS'wedontcare'
p2292
I1
sS'taiwan'
p2293
I1
sS'house bill757'
p2294
I1
sS'prison rape'
p2295
I1
sS'apple'
p2296
I1
sS'transgender rights'
p2297
I6
sS'buzzteament'
p2298
I2
sS'whiteboard post'
p2299
I1
sS'gay men'
p2300
I10
sS'craig anderson'
p2301
I1
sS'mike honda'
p2302
I1
sS'throuple'
p2303
I1
sS'paul verhoeven'
p2304
I1
sS'breakfast atbuzzfeed'
p2305
I1
sS'outreach director'
p2306
I1
sS'parents'
p2307
I6
sS'911 call'
p2308
I1
sS'sydney'
p2309
I8
sS'snap'
p2310
I1
sS'transformation'
p2311
I1
sS'dustin lanceblack'
p2312
I2
sS'family researchcouncil'
p2313
I1
sS'australia'
p2314
I63
sS'victims'
p2315
I2
sS'chest hair'
p2316
I1
sS'organ donation'
p2317
I1
sS'couple'
p2318
I13
sS'lesbian movies'
p2319
I1
sS'transgender women'
p2320
I1
sS'transrights  2016 BuzzFeed'
p2321
I1
sS'formal'
p2322
I1
sS'gay shit'
p2323
I1
sS'quinn nelson'
p2324
I1
sS'high art'
p2325
I1
sS'hiv indigenous community'
p2326
I1
sS'thierry henry'
p2327
I1
sS'yael stone'
p2328
I1
sS'miley cyrus'
p2329
I1
sS'salvadoran'
p2330
I1
sS'please likeme'
p2331
I1
sS'ptsd'
p2332
I1
sS'names'
p2333
I1
sS'sketch'
p2334
I1
sS'parents week'
p2335
I2
sS'fucking'
p2336
I1
sS'fathers'
p2337
I1
sS'pride 2016'
p2338
I1
sS'sex advice'
p2339
I2
sS'san francisco'
p2340
I1
sS'curious'
p2341
I1
sS'lindenwood university'
p2342
I1
sS'one nightstand'
p2343
I2
sS'dj tony'
p2344
I1
sS'ursula'
p2345
I1
sS'giving advice'
p2346
I1
sS'gods andmonsters'
p2347
I1
sS'new books2016'
p2348
I1
sS'adoptive'
p2349
I1
sS'religion'
p2350
I3
sS'prom'
p2351
I3
sS'masculinity'
p2352
I2
sS'manoj bajpayee'
p2353
I1
sS'gay conversiontherapy'
p2354
I3
sS'long distance relationships'
p2355
I1
sS'dating'
p2356
I32
sS'luxy'
p2357
I1
sS'celebrity news'
p2358
I1
sS'allow pepper sprays in highschools'
p2359
I1
sS'connor jessup'
p2360
I1
sS'never have iever'
p2361
I1
sS'bo'
p2362
I1
sS'bi'
p2363
I3
sS'american apparel'
p2364
I1
sS'the closet'
p2365
I1
sS'significant other'
p2366
I1
sS'carol'
p2367
I5
sS'c alexanderlondon'
p2368
I1
sS'roundup'
p2369
I1
sS'faith'
p2370
I1
sS'sb-2'
p2371
I1
sS'fertility industry'
p2372
I1
sS'anything'
p2373
I1
sS'foster care'
p2374
I1
sS'lgbt advocacy'
p2375
I1
sS'gambia'
p2376
I1
sS'stonewall'
p2377
I1
sS'melbourne'
p2378
I2
sS'ariel'
p2379
I1
sS'abbey lee'
p2380
I1
sS'groomsman'
p2381
I1
sS'house ofcards'
p2382
I2
sS'ocgirls'
p2383
I1
sS'dog pride'
p2384
I1
sS'tanmay bhat'
p2385
I1
sS'tomboy'
p2386
I3
sS'seeing'
p2387
I1
sS'kimberly peirce'
p2388
I1
sS'charlie comero'
p2389
I1
sS'same-sex'
p2390
I1
sS'mommy'
p2391
I1
sS'camp 2003'
p2392
I1
sS'locker rooms'
p2393
I2
sS'theater kids'
p2394
I1
sS'jossy yendall'
p2395
I1
sS'racism'
p2396
I1
sS'wally brewster'
p2397
I1
sS'msp'
p2398
I1
sS'north carolina anti-lgbtlaw'
p2399
I2
sS'andrew fleming'
p2400
I1
sS'ontario'
p2401
I1
sS'sad'
p2402
I1
sS'bangladesh'
p2403
I4
sS'bfmp video'
p2404
I1
sS'bad girls'
p2405
I1
sS'gay bars'
p2406
I1
sS'nothing butlight'
p2407
I1
sS'suit'
p2408
I3
sS'gaybies'
p2409
I1
sS'chris miller'
p2410
I1
sS'athlete'
p2411
I1
sS'movie posters'
p2412
I1
sS'groomsmen'
p2413
I1
sS'atlantis'
p2414
I1
sS'george takei'
p2415
I2
sS'the joker'
p2416
I1
sS'laurence anyways'
p2417
I1
sS'safe schools'
p2418
I3
sS'miranda july'
p2419
I1
sS'girlfriends'
p2420
I1
sS'glamour'
p2421
I1
sS'jackd'
p2422
I1
sS'clement grobotek'
p2423
I1
sS'roger goodell'
p2424
I1
sS'uk politics'
p2425
I7
sS'fdny'
p2426
I1
sS'texas judge'
p2427
I1
sS'clothing lines'
p2428
I1
sS'bi relationships'
p2429
I1
sS'zika'
p2430
I1
sS'fda'
p2431
I3
sS'tumblr'
p2432
I10
sS'bfmp'
p2433
I1
sS'first meeting'
p2434
I1
sS'the advocate'
p2435
I1
sS'us'
p2436
I1
sS'stalking'
p2437
I1
sS'mobile'
p2438
I1
sS'tribeca film festival2016'
p2439
I1
sS'uk'
p2440
I3
sS'westminster  2016 BuzzFeed'
p2441
I1
sS'soulswipe'
p2442
I1
sS'wicked'
p2443
I2
sS'hot men'
p2444
I2
sS'showtime'
p2445
I3
sS'pantone color of theyear'
p2446
I1
sS'amber heard'
p2447
I1
sS'single'
p2448
I1
sS'shaysima'
p2449
I1
sS'lgbt ad'
p2450
I1
sS'rally'
p2451
I1
sS'lgbt  2016 BuzzFeed'
p2452
I2
sS'lesbian jokes'
p2453
I1
sS'kidney'
p2454
I1
sS'anti-lgbt law'
p2455
I2
sS'ray rivera'
p2456
I1
sS'anthology'
p2457
I1
sS'clapback'
p2458
I1
sS'queer superhero'
p2459
I1
sS'i killed mymother'
p2460
I1
sS'peace'
p2461
I1
sS"mother's day"
p2462
I2
sS'gilead'
p2463
I1
sS'lgbt bars'
p2464
I1
sS'busybees'
p2465
I1
sS'ellen'
p2466
I4
sS'pronouns'
p2467
I1
sS'hurricane bianca'
p2468
I1
sS'paily'
p2469
I1
sS'trans  2016 BuzzFeed'
p2470
I1
sS'us military'
p2471
I1
sS'polysexuality'
p2472
I1
sS'kansas'
p2473
I1
sS'the hive'
p2474
I1
sS'pedro almodovar'
p2475
I1
sS'greek myths'
p2476
I1
sS'section 377'
p2477
I4
sS'the littlemermaid'
p2478
I1
sS'posters'
p2479
I2
sS'may i speak to yourmanager'
p2480
I1
sS'cdnpoli'
p2481
I1
sS'season 2'
p2482
I3
sS'india socialnews'
p2483
I1
sS'presidential race'
p2484
I2
sS'doug jung'
p2485
I1
sS'youtube'
p2486
I6
sS'hillary clinton'
p2487
I12
sS'barry humphries'
p2488
I1
sS'episcopal church'
p2489
I1
sS'2004'
p2490
I1
sS'psychiatry'
p2491
I1
sS'anglican church ofcanada'
p2492
I1
sS'gender segregated bathrooms'
p2493
I1
sS'essay'
p2494
I12
sS'healthops'
p2495
I1
sS'katy perry'
p2496
I1
sS'kyle chandler'
p2497
I2
sS'illustrated'
p2498
I2
sS'brochure'
p2499
I1
sS'amanda jetteknox'
p2500
I1
sS'eytan fox'
p2501
I1
sS'issues'
p2502
I1
sS'uk science'
p2503
I3
sS'ocean vuong'
p2504
I1
sS'bryansk'
p2505
I1
sS'lubricants'
p2506
I1
sS'state department'
p2507
I1
sS'ryan murphy'
p2508
I2
sS'young'
p2509
I1
sS'suits'
p2510
I2
sS'loretta lynch'
p2511
I2
sS'hiv/aids'
p2512
I1
sS'masculine'
p2513
I2
sS'hipster'
p2514
I1
sS'ted cruz'
p2515
I3
sS'hb 2bill'
p2516
I1
sS'shane hiseman'
p2517
I1
sS'airport security'
p2518
I1
sS'pulse shooting'
p2519
I3
sS'religious freedom'
p2520
I15
sS'cocoabutterops'
p2521
I3
sS'facebook'
p2522
I4
sS'hugging'
p2523
I1
sS'petitions'
p2524
I1
sS'lasik'
p2525
I1
sS'lgbt community'
p2526
I4
sS'womens restroom'
p2527
I1
sS'shaun kitchener'
p2528
I1
sS'dog prideparade'
p2529
I1
sS'in thebutt'
p2530
I1
sS'ryan'
p2531
I1
sS'camp themovie'
p2532
I1
sS'race'
p2533
I2
sS'verdict'
p2534
I1
sS'gov andrewcuomo'
p2535
I1
sS'raffi freedman'
p2536
I1
sS'bathroom ordinance'
p2537
I1
sS'discrimination lawsuit'
p2538
I1
sS'stop motion'
p2539
I1
sS'justin lin'
p2540
I1
sS'humsafar trust'
p2541
I1
sS'happy ending'
p2542
I1
sS'androgynous'
p2543
I9
sS'amber heard johnnydepp'
p2544
I1
sS'transphobia'
p2545
I4
sS'personal finance'
p2546
I1
sS'loveops'
p2547
I9
sS'video'
p2548
I14
sS'janet rice'
p2549
I3
sS'headerbadgepride'
p2550
I5
sS'haiku'
p2551
I2
sS'pornography'
p2552
I2
sS'concerned albertamother'
p2553
I1
sS'acid'
p2554
I1
sS'pajamas'
p2555
I1
sS'depression'
p2556
I3
sS'makeup guide'
p2557
I1
sS'universities'
p2558
I1
sS'north carolinaanti'
p2559
I1
sS'business'
p2560
I1
sS'chicago'
p2561
I1
sS'ethan green'
p2562
I1
sS'twink'
p2563
I1
sS'indian'
p2564
I1
sS'national gay lesbian chamber ofcommerce'
p2565
I1
sS'hamburger marys'
p2566
I1
sS'nails'
p2567
I1
sS'exercise'
p2568
I1
sS'scott brison'
p2569
I1
sS'borderline personalitydisorder'
p2570
I1
sS'zoe knox'
p2571
I1
sS'beautiful as i want tobe'
p2572
I1
sS'canadina'
p2573
I1
sS'lgbt film'
p2574
I1
sS'bulimia'
p2575
I1
sS'house bill2'
p2576
I3
sS'bachelor'
p2577
I1
sS'hb 1523'
p2578
I2
sS'sexy'
p2579
I4
sS'ukraine'
p2580
I3
sS'photo shoot'
p2581
I1
sS'lesbian struggles'
p2582
I2
sS'copyright'
p2583
I1
sS'alaska'
p2584
I1
sS'mara keisling'
p2585
I1
sS'survey'
p2586
I1
sS'jackie biskupski'
p2587
I1
sS'lgbt parenting'
p2588
I2
sS'skin'
p2589
I1
sS'beaten up'
p2590
I1
sS'youtuber'
p2591
I2
sS'honor'
p2592
I1
sS'dreamgirls'
p2593
I1
sS'writer'
p2594
I5
sS'drums'
p2595
I1
sS'montpellier'
p2596
I1
sS'amy poehler'
p2597
I2
sS'egypt'
p2598
I3
sS'win'
p2599
I20
sS'app'
p2600
I5
sS'confession'
p2601
I1
sS'strip search'
p2602
I1
sS'performer'
p2603
I1
sS'world leaders  2016 BuzzFeed'
p2604
I1
sS'american horror storyquotes'
p2605
I1
sS'zachary quinto'
p2606
I1
sS'geraldine roman'
p2607
I1
sS'michael ianblack'
p2608
I1
sS'sarees'
p2609
I1
sS'university ofhouston'
p2610
I1
sS'sexual abuse'
p2611
I1
sS'crazy ex'
p2612
I1
sS'transgender lawcenter'
p2613
I1
sS'saudi arabia'
p2614
I2
sS'article 14'
p2615
I1
sS'clocking'
p2616
I1
sS'breakup'
p2617
I1
sS'pilipinas 2016'
p2618
I1
sS'eleven'
p2619
I1
sS'tim curry'
p2620
I3
sS'racist attack'
p2621
I1
sS'canada refugees'
p2622
I1
sS'straight whitewomen'
p2623
I1
sS'education department'
p2624
I3
sS'malawi'
p2625
I1
sS'amber heardarrested'
p2626
I1
sS'parliament'
p2627
I1
sS'condom'
p2628
I1
sS'what percentage piper chapman areyou?'
p2629
I1
sS'freedom'
p2630
I1
sS'tony fauci'
p2631
I1
sS'visibility'
p2632
I1
sS'metrophoto'
p2633
I1
sS'penis'
p2634
I1
sS'lbgt'
p2635
I3
sS'charity'
p2636
I3
sS'lgbt proposal'
p2637
I1
sS'questions gay people have for bisexualpeople'
p2638
I1
sS'caster semenya'
p2639
I1
sS'caitlin theresesullivan'
p2640
I1
sS'original video'
p2641
I1
sS'showtunes'
p2642
I1
sS'challenge'
p2643
I1
sS'edwardian'
p2644
I1
sS'how to change yourname'
p2645
I1
sS'buzzpoloz'
p2646
I1
sS'anchorage'
p2647
I1
sS'emma roberts'
p2648
I1
sS'sex is a funnyword'
p2649
I1
sS'gym class'
p2650
I1
sS'rolling stones'
p2651
I1
sS'masha gessen'
p2652
I1
sS'dan patrick'
p2653
I1
sS'grace dunham'
p2654
I1
sS'vince rimoldi'
p2655
I1
sS'womyn'
p2656
I1
sS'halloween'
p2657
I3
sS'plebiscite'
p2658
I11
sS'cory silverberg'
p2659
I1
sS'sworn virgin'
p2660
I1
sS'zhou enlai'
p2661
I1
sS'proxy'
p2662
I1
sS'great gats'
p2663
I1
sS'trump today show townhall'
p2664
I1
sS'cuddle positions'
p2665
I1
sS'centre mtropolitain de chirurgie'
p2666
I1
sS'18 reasons winter is the best time of the year to besingle'
p2667
I1
sS"what's the most annoying part about getting yourperiod?"
p2668
I1
sS'syndrome'
p2669
I1
sS'rupauls drag race season8'
p2670
I1
sS'super bowl'
p2671
I1
sS'boxing'
p2672
I2
sS'poetry'
p2673
I5
sS'dating app'
p2674
I2
sS'lgbtiqa'
p2675
I2
sS'rape'
p2676
I1
sS'hormones'
p2677
I1
sS'dee rees'
p2678
I1
sS'comedy'
p2679
I6
sS'memoir'
p2680
I3
sS'gurl'
p2681
I1
sS'bestofcanada2015'
p2682
I1
sS'public accommodation'
p2683
I1
sS'autobiography'
p2684
I1
sS'kickstarter'
p2685
I1
sS'collection'
p2686
I22
sS'abuse'
p2687
I3
sS'frank ocean'
p2688
I2
sS'compete'
p2689
I1
sS'everard baths'
p2690
I1
sS'prostate'
p2691
I1
sS'cuddling'
p2692
I1
sS'female directors'
p2693
I1
sS'dirty dancing'
p2694
I1
sS'sam smith'
p2695
I2
sS'espaol'
p2696
I1
sS'plus-size'
p2697
I2
sS'orlando  2016 BuzzFeed'
p2698
I1
sS'funniest ahsmoments'
p2699
I1
sS'houston'
p2700
I4
sS'amelia gapin'
p2701
I1
sS'olivia wilde'
p2702
I1
sS'pastor'
p2703
I1
sS'phil lord'
p2704
I1
sS'gynecology'
p2705
I1
sS'anti-gun laws'
p2706
I1
sS'glastonbury2016'
p2707
I1
sS'uhaul'
p2708
I1
sS'outage'
p2709
I1
sS'sixty-nine'
p2710
I1
sS'gender'
p2711
I16
sS'underwater'
p2712
I1
sS'couple time'
p2713
I3
sS'girl trash'
p2714
I1
sS'pearl love'
p2715
I1
sS'la'
p2716
I1
sS'majorie enya'
p2717
I1
sS'glee'
p2718
I2
sS'nostalgia'
p2719
I1
sS'marriage alliance'
p2720
I1
sS'tsa'
p2721
I1
sS'faa'
p2722
I1
sS'how to get away withmurder'
p2723
I1
sS'sexual tension'
p2724
I1
sS'puerto rico'
p2725
I1
sS'2015'
p2726
I7
sS'dr. james davidmanning'
p2727
I1
sS'2016'
p2728
I10
sS'cat smith'
p2729
I1
sS'jay weatherill'
p2730
I1
sS'dad'
p2731
I1
sS'evan goldberg'
p2732
I1
sS'scotus'
p2733
I1
sS'bestofoz2015'
p2734
I4
sS'supreme court'
p2735
I2
sS'joel mchale'
p2736
I1
sS'kiss'
p2737
I3
sS'trade'
p2738
I1
sS'deepika padukone'
p2739
I1
sS'miles joris-peyrafitte'
p2740
I1
sS'love myself'
p2741
I1
sS'indian penalcode'
p2742
I1
sS'transparent'
p2743
I6
sS'brittany'
p2744
I1
sS'mark ruffalo'
p2745
I1
sS'gay filmmakers'
p2746
I1
sS'glaad'
p2747
I2
sS'gender affirmingsurgery'
p2748
I2
sS'nfl'
p2749
I2
sS'bad sex'
p2750
I1
sS'godrej'
p2751
I1
sS'betty'
p2752
I1
sS'truth'
p2753
I2
sS'sexyops'
p2754
I1
sS'adam silver'
p2755
I1
sS'splash mountain'
p2756
I1
sS'the sims'
p2757
I1
sS'samira wiley and danielle brooks make mac andcheese'
p2758
I1
sS'beginner'
p2759
I1
sS'iowa civil rights commission'
p2760
I1
sS'lgbt groups gunsafety'
p2761
I1
sS'happy birthdaymarsha'
p2762
I1
sS'roberta kaplan'
p2763
I4
sS'viral  2016 BuzzFeed'
p2764
I4
sS'love isstrange'
p2765
I1
sS'rfra'
p2766
I3
sS'gay representation'
p2767
I2
sS'kaboom'
p2768
I1
sS'johnny depp'
p2769
I1
sS'park chan-wook'
p2770
I1
sS'out'
p2771
I1
sS'butch'
p2772
I1
sS'matt'
p2773
I2
sS'phi phiohara'
p2774
I1
sS'entertainment'
p2775
I6
sS'activism'
p2776
I1
sS'reboot'
p2777
I1
sS'gloria vanderbilt'
p2778
I1
sS'polyamory'
p2779
I1
sS'airbnb'
p2780
I2
sS'bill clinton'
p2781
I1
sS'activist'
p2782
I1
sS'hilarious'
p2783
I2
sS'pride flag'
p2784
I1
sS'red'
p2785
I1
sS'18 times "please like me" season 3 was absolutelyiconic'
p2786
I1
sS'title ix'
p2787
I14
sS'model'
p2788
I1
sS'lip syncbattle'
p2789
I1
sS'free speech'
p2790
I1
sS'abuela'
p2791
I1
sS'best of2015'
p2792
I5
sS'wedding inspiration'
p2793
I1
sS'androgynous clothing'
p2794
I3
sS'holiday time'
p2795
I1
sS'southern poverty lawcenter'
p2796
I2
sS'tiger mandingo'
p2797
I1
sS'conservatives'
p2798
I2
sS'valentines cards'
p2799
I1
sS'ian mckellan'
p2800
I1
sS'rhoa'
p2801
I1
sS'gender inclusive'
p2802
I1
sS'fictional lesbians'
p2803
I1
sS'womens sports'
p2804
I1
sS'little mix'
p2805
I1
sS'g'
p2806
I1
sS'the transgenderarchives'
p2807
I1
sS'which tv couple are you and your significantother?'
p2808
I1
sS'caitlyn jenner'
p2809
I12
sS'conversation'
p2810
I1
sS'cosima'
p2811
I1
sS'homelessness'
p2812
I1
sS'gay superhero'
p2813
I1
sS'cardiff university'
p2814
I2
sS'brandi carlile'
p2815
I1
sS'housing'
p2816
I1
sS'sainsburys'
p2817
I1
sS'gender progressive'
p2818
I1
sS'nik dodani'
p2819
I1
sS'destination wedding'
p2820
I1
sS'kim davis'
p2821
I4
sS'powerful'
p2822
I2
sS'justin trudeau'
p2823
I5
sS'jordan raskopoulos'
p2824
I1
sS'heaps gay'
p2825
I1
sS'short film'
p2826
I2
sS'strap on'
p2827
I1
sS'art'
p2828
I13
sS'straight'
p2829
I2
sS'sonu nigam'
p2830
I1
sS'woman of theyear'
p2831
I1
sS'australian idol'
p2832
I1
sS'black historymonth'
p2833
I2
sS'guys'
p2834
I2
sS'blackhistorymonth'
p2835
I2
sS'vagina'
p2836
I1
sS'behance'
p2837
I1
sS'gale harold'
p2838
I1
sS'sergeant'
p2839
I1
sS'philippine elections2016'
p2840
I1
sS'donald trump caitlynjenner'
p2841
I1
sS'racist'
p2842
I1
sS'manny pacquiaobigot'
p2843
I1
sS'reeve carney'
p2844
I1
sS'rupaul'
p2845
I7
sS'shorts'
p2846
I1
sS'ivy league'
p2847
I1
sS'twitter users'
p2848
I1
sS'stress'
p2849
I1
sS'the oc'
p2850
I1
sS'highlands'
p2851
I1
sS'real monsters'
p2852
I1
sS'two moms'
p2853
I2
sS'aboriginal affairs'
p2854
I2
sS'lgbt canada'
p2855
I1
sS'gay icon'
p2856
I1
sS'daddy af'
p2857
I1
sS'domestic abuse'
p2858
I2
sS'love advice'
p2859
I1
sS'transgender students  2016 BuzzFeed'
p2860
I1
sS'bed'
p2861
I1
sS'bi invisibility'
p2862
I1
sS'township high school district211'
p2863
I1
sS'ricky gervais'
p2864
I1
sS'drag name'
p2865
I2
sS'clexa'
p2866
I4
sS'gays'
p2867
I3
sS'department of homelandsecurity'
p2868
I1
sS'health canada'
p2869
I1
sS'bisexual'
p2870
I26
sS'teenagers'
p2871
I1
sS'sam smiths'
p2872
I1
sS'lgbt families'
p2873
I2
sS'asking foradvice'
p2874
I1
sS'uganda'
p2875
I3
sS'tca'
p2876
I3
sS'lgbt advocates'
p2877
I1
sS'out athletes'
p2878
I1
sS'buzzfeed philippines'
p2879
I4
sS'maria miller'
p2880
I1
sS'catholic'
p2881
I3
sS'break ups'
p2882
I1
sS'movies every lgbt person has tosee'
p2883
I1
sS'gay bear'
p2884
I1
sS'girl scouts'
p2885
I1
sS'makeover'
p2886
I2
sS'transgender william institute'
p2887
I1
sS'equality act'
p2888
I2
sS'ways to enjoy sexmore'
p2889
I1
sS'jail'
p2890
I6
sS'kesha'
p2891
I1
sS'years &years'
p2892
I1
sS'allman brothers'
p2893
I1
sS'moments in transition'
p2894
I1
sS'brazil'
p2895
I1
sS'trans men'
p2896
I1
sS'parenting'
p2897
I7
sS'montana'
p2898
I1
sS'we deservebetter'
p2899
I1
sS'beauty standards'
p2900
I2
sS'tall'
p2901
I1
sS'nonbinary clothing'
p2902
I1
sS'carson kressley'
p2903
I1
sS'cellphone'
p2904
I1
sS'back toschool'
p2905
I2
sS'kelsey darragh'
p2906
I1
sS'haiku book'
p2907
I1
sS'sam taylor-johnson'
p2908
I1
sS'advice column'
p2909
I1
sS'thanksgiving'
p2910
I2
sS'massage oil'
p2911
I1
sS'los angeles'
p2912
I6
sS'heartbeats'
p2913
I1
sS'barbara streisand'
p2914
I1
sS'out actors'
p2915
I1
sS'long distancemarriage'
p2916
I1
sS'goals'
p2917
I2
sS'how to beadopt'
p2918
I1
sS'wedding 2015'
p2919
I1
sS'lenny abrahamson'
p2920
I1
sS'latinos'
p2921
I1
sS'comic-con'
p2922
I1
sS'transgender prisoners'
p2923
I1
sS'text'
p2924
I1
sS'hot guy'
p2925
I1
sS'manchester'
p2926
I2
sS"children's book"
p2927
I2
sS'asylum'
p2928
I1
sS'debate'
p2929
I1
sS'penny sharpe'
p2930
I2
sS'partners'
p2931
I1
sS'manoj bajpai'
p2932
I1
sS'mumbai'
p2933
I3
sS'mother monster'
p2934
I1
sS'wearing suits'
p2935
I1
sS'billy elliot'
p2936
I1
sS'avac'
p2937
I1
sS'hope'
p2938
I1
sS'set visit'
p2939
I1
sS'my drunkkitchen'
p2940
I1
sS'photography'
p2941
I8
sS'massacre'
p2942
I1
sS'ukquizlabs'
p2943
I1
sS'bear'
p2944
I1
sS'australian music'
p2945
I1
sS'lgbt discrimination'
p2946
I1
sS'close tohome'
p2947
I1
sS'jade thirlwall'
p2948
I1
sS'toronto police'
p2949
I1
sS'african american'
p2950
I2
sS'new year'
p2951
I1
sS'greek life'
p2952
I1
sS'dr james davidmanning'
p2953
I1
sS'bf originalvideo'
p2954
I1
sS'awards show'
p2955
I1
sS'pride flags'
p2956
I1
sS'married'
p2957
I3
sS'vice ganda'
p2958
I1
sS'john kasich'
p2959
I1
sS'mental health awareness'
p2960
I1
sS'bathhouse'
p2961
I3
sS'gram'
p2962
I1
sS'into thewoods'
p2963
I1
sS'foodland'
p2964
I2
sS'jack sholder'
p2965
I1
sS'mark kirk'
p2966
I1
sS'canadian nationalexhibit'
p2967
I1
sS'staples center'
p2968
I1
sS'intersectional feminism'
p2969
I1
sS'religious leaders'
p2970
I1
sS'gender expectations'
p2971
I1
sS'whole foods'
p2972
I3
sS'gay bloodban'
p2973
I1
sS'open relationship'
p2974
I1
sS'the interview'
p2975
I1
sS'greece'
p2976
I1
sS'lesbian sex'
p2977
I1
sS'orlando shooting  2016 BuzzFeed'
p2978
I1
sS'gov patmccrory'
p2979
I3
sS'phases'
p2980
I1
sS'closet'
p2981
I1
sS'poussey'
p2982
I1
sS'dundee'
p2983
I1
sS'unisex clothing'
p2984
I1
sS'ralph becker'
p2985
I1
sS'fifties'
p2986
I1
sS'confusion'
p2987
I1
sS'rachel dratch'
p2988
I1
sS'alan cumming'
p2989
I1
sS'com edit'
p2990
I1
sS'dmv'
p2991
I1
sS'long distance'
p2992
I3
sS'denny hastert'
p2993
I1
sS'butts'
p2994
I1
sS'ingrid jungermann'
p2995
I1
sS'trans woman attackedsubway'
p2996
I1
sS'squads'
p2997
I1
sS'police'
p2998
I5
sS'surrogacy'
p2999
I2
sS'lawsuit'
p3000
I2
sS'bathroom bills'
p3001
I1
sS'west hollywood'
p3002
I1
sS'women struggles'
p3003
I1
sS'carrie brownstein'
p3004
I1
sS'lost girlseries'
p3005
I1
sS'greys anatomy'
p3006
I1
sS'bestoflgbt2015'
p3007
I12
sS'rams'
p3008
I2
sS'darryl'
p3009
I1
sS'tibette'
p3010
I1
sS'ukregionallab'
p3011
I1
sS'weird sexstories'
p3012
I1
sS'jill soloway'
p3013
I1
sS'theres no i inteam'
p3014
I1
sS'drew leinonen'
p3015
I2
sS'gay nightclub'
p3016
I1
sS'jim obergefell'
p3017
I1
sS'food and drug administration'
p3018
I1
sS'denise'
p3019
I1
sS'cyndi lauper'
p3020
I1
sS'glamour magazine'
p3021
I1
sS'news'
p3022
I1
sS'rupauls rad race season8'
p3023
I1
sS'neuroatypiciality'
p3024
I1
sS'houston texans'
p3025
I1
sS'poem'
p3026
I2
sS'trans parent'
p3027
I1
sS'world congress offamilies'
p3028
I1
sS'hindu'
p3029
I1
sS'charts'
p3030
I2
sS'canadian forces'
p3031
I1
sS'drury innsuites'
p3032
I1
sS'dr frank-n-furter'
p3033
I1
sS'hindi'
p3034
I1
sS'warwick'
p3035
I1
sS'oral herpes'
p3036
I1
sS'proposal'
p3037
I2
sS'louisiana'
p3038
I1
sS'todd haynes'
p3039
I3
sS'mike rose'
p3040
I1
sS'homosexual'
p3041
I8
sS'diversity'
p3042
I2
sS'legal highs'
p3043
I1
sS'censor'
p3044
I1
sS'mesa police'
p3045
I1
sS'adam goldman'
p3046
I1
sS'joseph scott pemberton'
p3047
I1
sS'otp'
p3048
I2
sS'smoking'
p3049
I1
sS'san diego comic-con'
p3050
I1
sS'spain'
p3051
I2
sS'volunteer'
p3052
I1
sS'iwearhandloom'
p3053
I1
sS'franks moving'
p3054
I1
sS'asexual'
p3055
I1
sS'britain'
p3056
I1
sS'podcasts'
p3057
I1
sS'san diegopadres'
p3058
I1
sS'body positivity'
p3059
I3
sS'justin vivianbond'
p3060
I1
sS'pictures'
p3061
I1
sS'hormone treatment'
p3062
I1
sS'mike white'
p3063
I1
sS'trans representation'
p3064
I1
sS'mentalhealthweek'
p3065
I9
sS'hobbies'
p3066
I1
sS'being single'
p3067
I1
sS'vs'
p3068
I1
sS'filmatography'
p3069
I1
sS'queer desis'
p3070
I1
sS'novo foundation'
p3071
I1
sS'partner'
p3072
I1
sS'musicals'
p3073
I1
sS'first kiss'
p3074
I1
sS'tattoo'
p3075
I1
sS'education'
p3076
I2
sS'grinder'
p3077
I1
sS'tomboyish'
p3078
I1
sS'indian moms'
p3079
I1
sS'vintage'
p3080
I1
sS'john cameronmitchell'
p3081
I1
sS'oz celeb'
p3082
I1
sS'mac andcheese'
p3083
I1
sS'trans male'
p3084
I1
sS'september 11'
p3085
I1
sS'helena martins'
p3086
I1
sS'terrorism'
p3087
I2
sS'csl plasma'
p3088
I1
sS'just aphase'
p3089
I1
sS'cellphones'
p3090
I1
sS'tina kennard'
p3091
I1
sS'lgbt policies'
p3092
I1
sS'aunews'
p3093
I2
sS'social newsstories'
p3094
I7
sS'sauna'
p3095
I2
sS'bullying'
p3096
I6
sS'owen wilson'
p3097
I1
sS'student'
p3098
I4
sS'what percent'
p3099
I1
sS'sisters'
p3100
I1
sS'ikea'
p3101
I1
sS'sex products'
p3102
I1
sS'evan peters'
p3103
I1
sS'dussehra'
p3104
I1
sS'summer time'
p3105
I1
sS'kylie jenner'
p3106
I1
sS'indonesia'
p3107
I8
sS'buzzfeed video'
p3108
I3
sS'childrens book'
p3109
I3
sS'laverne cox'
p3110
I6
sS'miles mcmillan'
p3111
I1
sS'ian thorpe'
p3112
I2
sS'harto'
p3113
I1
sS'charts aboutsex'
p3114
I1
sS'daniel robinson'
p3115
I1
sS'heroic stories orlandoshooting'
p3116
I1
sS'lynching'
p3117
I1
sS'carrie'
p3118
I1
sS'moments'
p3119
I1
sS'boot'
p3120
I1
sS'black livesmatter'
p3121
I3
sS'hpv'
p3122
I1
sS'whisper confessions'
p3123
I1
sS'localtimely'
p3124
I1
sS'meanthalhealthweek2014'
p3125
I1
sS'lauren'
p3126
I1
sS'fashion cares2016'
p3127
I1
sS'subway video'
p3128
I1
sS'femme'
p3129
I1
sS'original stylecontent'
p3130
I2
sS'mona iraqi'
p3131
I1
sS'stranger things'
p3132
I1
sS'republican'
p3133
I5
sS'campus carry'
p3134
I1
sS'same sexcouple'
p3135
I4
sS'twilight'
p3136
I1
sS'drunk'
p3137
I1
sS'appreciation post'
p3138
I1
sS"valentine's day"
p3139
I1
sS'arrest'
p3140
I2
sS'add'
p3141
I1
sS'department of health and humanservice'
p3142
I1
sS'china vsus'
p3143
I1
sS'donald trump bathroomlaw'
p3144
I1
sS'sweet'
p3145
I1
sS'thought catalog'
p3146
I1
sS'immigration  2016 BuzzFeed'
p3147
I1
sS'bob ferguson'
p3148
I1
sS'amiyah scott'
p3149
I1
sS'pitch perfect'
p3150
I1
sS'indian gaymen'
p3151
I1
sS'psa'
p3152
I1
sS'subject tochange'
p3153
I1
sS'crispin blunt'
p3154
I1
sS'mary lambert'
p3155
I1
sS'government'
p3156
I1
sS'utah'
p3157
I3
sS'queer film'
p3158
I2
sS'joey pollari'
p3159
I1
sS'desi'
p3160
I2
sS'the kardashians'
p3161
I1
sS'alisha'
p3162
I1
sS'summer butts'
p3163
I2
sS'sex life'
p3164
I1
sS'jumblequiz'
p3165
I1
sS'americas next topmodel'
p3166
I1
sS'loss'
p3167
I1
sS'jawbreaker'
p3168
I1
sS'twitterstorm'
p3169
I1
sS'chris kluwe'
p3170
I1
sS'alan turing'
p3171
I1
sS'bigotry'
p3172
I1
sS'journalism'
p3173
I1
sS'mother-in-law'
p3174
I1
sS'celeb instas'
p3175
I1
sS'house ofcommons'
p3176
I1
sS'male bodyimage'
p3177
I1
sS'bernie sanders'
p3178
I7
sS'refugees'
p3179
I4
sS'university'
p3180
I2
sS'fried greentomatoes'
p3181
I1
sS'virginity'
p3182
I1
sS'nondiscrimination'
p3183
I9
sS'jacob tremblay'
p3184
I1
sS'holtzmann'
p3185
I1
sS'twitter'
p3186
I19
sS'church'
p3187
I1
sS'cameron esposito'
p3188
I2
sS'hair'
p3189
I2
sS'homo'
p3190
I1
sS'cleveland'
p3191
I2
sS'home'
p3192
I2
sS'empire'
p3193
I1
sS'employment'
p3194
I4
sS'viral video  2016 BuzzFeed'
p3195
I1
sS'cannes2015'
p3196
I1
sS'wedding stories'
p3197
I1
sS'colma themusical'
p3198
I1
sS'syfy'
p3199
I1
sS'shelter'
p3200
I1
sS'new yorkpride'
p3201
I1
sS'how much itcosts'
p3202
I1
sS'zackary drucker'
p3203
I3
sS'dating and relationships'
p3204
I1
sS'historic sexoffences'
p3205
I1
sS'slur'
p3206
I1
sS'conversion therapy'
p3207
I5
sS'journal'
p3208
I1
sS'new yorkcity'
p3209
I1
sS'ya fiction'
p3210
I1
sS'pressure'
p3211
I1
sS'dildos'
p3212
I1
sS'against me'
p3213
I1
sS'television'
p3214
I18
sS'2016 pride'
p3215
I1
sS'english standup'
p3216
I1
sS'gaytimes'
p3217
I1
sS'hookup'
p3218
I4
sS'follies'
p3219
I1
sS'shoes'
p3220
I1
sS'shipping'
p3221
I2
sS'fictional film'
p3222
I1
sS'craig johnson'
p3223
I1
sS'john oliver'
p3224
I1
sS'rug'
p3225
I3
sS'delhi university'
p3226
I1
sS'glasses'
p3227
I1
sS'documentary'
p3228
I4
sS'channing tatum'
p3229
I1
sS'canadas wonderland'
p3230
I1
sS'finding carter'
p3231
I1
sS'stagedoor manor'
p3232
I1
sS'jennifer beals'
p3233
I1
sS'cara and annie2015'
p3234
I1
sS'transgender video'
p3235
I1
sS'christopher hansen'
p3236
I1
sS'washington'
p3237
I1
sS'blair braverman'
p3238
I1
sS'fundraiser'
p3239
I1
sS'bestofaustralia2015'
p3240
I5
sS'gay dating'
p3241
I1
sS'paul lisicky'
p3242
I1
sS'police  2016 BuzzFeed'
p3243
I1
sS'mississippi'
p3244
I10
sS'south dakota'
p3245
I2
sS'brownies'
p3246
I1
sS'bozeman'
p3247
I1
sS'friends'
p3248
I3
sS'museum'
p3249
I1
sS'apps'
p3250
I3
sS'congress equalityact'
p3251
I1
sS'pantagon'
p3252
I1
sS'lgbt indian'
p3253
I1
sS'buy artpop onitunes'
p3254
I1
sS'transphobia  2016 BuzzFeed'
p3255
I1
sS'athleisure'
p3256
I1
sS'india culturelab'
p3257
I1
sS'mardi gras'
p3258
I7
sS'trans healthcare'
p3259
I1
sS'shane'
p3260
I4
sS'transgender woman'
p3261
I1
sS'arthur laurents'
p3262
I1
sS'la kings'
p3263
I1
sS'courts'
p3264
I1
sS'hm'
p3265
I1
sS'michael allen'
p3266
I1
sS'legal high'
p3267
I1
sS'moving in'
p3268
I1
sS'straight men'
p3269
I1
sS'juliet jacques'
p3270
I1
sS'years years'
p3271
I1
sS'chad griffin'
p3272
I2
sS'dykes onbikes'
p3273
I1
sS'books'
p3274
I10
sS'stories'
p3275
I1
sS'ruling'
p3276
I2
sS'pippin'
p3277
I1
sS'cake'
p3278
I2
sS'ib ministry'
p3279
I1
sS'red lotus'
p3280
I1
sS'handloom'
p3281
I1
sS'menstruation'
p3282
I1
sS'homegrownterror  2016 BuzzFeed'
p3283
I1
sS'whisper'
p3284
I2
sS'asylum seekers'
p3285
I2
sS'recon'
p3286
I1
sS'death of davidbowie'
p3287
I1
sS'referee'
p3288
I1
sS'periods'
p3289
I1
sS'trans unitedfund'
p3290
I1
sS'ink'
p3291
I1
sS'fitbit'
p3292
I2
sS'wedding planning'
p3293
I1
sS'80'
p3294
I1
sS'fontbonne'
p3295
I1
sS'omar mateen'
p3296
I1
sS'stonewall inn'
p3297
I2
sS'dont let it go to voicemail'
p3298
I1
sS'gay subtext'
p3299
I1
sS'hedwig and the angryinch'
p3300
I1
sS'bestofceleb2015'
p3301
I1
sS'illinois'
p3302
I2
sS'amit bittoodey'
p3303
I1
sS'matt bomer'
p3304
I1
sS'historic landmark'
p3305
I1
sS'aclu'
p3306
I6
sS'sorority sisters'
p3307
I1
sS'tina healy.'
p3308
I1
sS'heart eyes'
p3309
I1
sS'goat'
p3310
I1
sS'transgender community'
p3311
I1
sS'sally goldner'
p3312
I1
sS'david chaskin'
p3313
I1
sS'national monument'
p3314
I1
sS'civil rights'
p3315
I1
sS'polysexual'
p3316
I1
sS'game of thrones season6'
p3317
I1
sS'jessica jones'
p3318
I1
sS'youtubers'
p3319
I1
sS'ba'
p3320
I2
sS'hivaids'
p3321
I1
sS'amber heard tasya vanree'
p3322
I1
sS'department ofdefense'
p3323
I2
sS'manny pacquiao'
p3324
I5
sS'badass'
p3325
I1
sS'queer asfolk'
p3326
I2
sS'lgbt photoshoot'
p3327
I1
sS'jennifer finneyboylan'
p3328
I1
sS'yelp'
p3329
I1
sS'human rightswatch'
p3330
I1
sS'hookups'
p3331
I1
sS'bestofindia2015'
p3332
I1
sS'awkward conversations'
p3333
I1
sS'bottoming'
p3334
I2
sS'oil sands'
p3335
I1
sS'will never understand'
p3336
I1
sS'jonathan schumm'
p3337
I1
sS'pods'
p3338
I1
sS'mermen'
p3339
I1
stp3340
Rp3341
.