(lp0
S'/lanesainty/lgbt-kids-struggling-in-wake-of-safe-schools-scare-campaign'
p1
aS'/juliegerstein/this-designer-is-making-gender-non-conforming-clothes-for-al'
p2
aS'/lanesainty/heres-what-happened-in-australias-ugliest-lgbt-debate'
p3
aS'/chrisgeidner/texas-attorney-general-jumps-into-lawsuits-over-north-caroli'
p4
aS'/skarlan/i-hear-you'
p5
aS'/abigailmcintosh/fictional-characters-who-helped-people-realise-they-were'
p6
aS'/krishrach/this-instagram-star-says-he-was-jailed-for-two-months-in-qat'
p7
aS'/dominicholden/will-feds-keep-protecting-transgender-workers-in-wake-of-cou'
p8
aS'/laurenstrapagiel/love-will-have-its-sacrifices'
p9
aS'/michaelblackmon/tiffany-new-york-pollard-is-the-host-of-a-new-dating-show-an'
p10
aS'/emaoconnor/texas-lgbt-students-say-they-dont-feel-safe-now-that-people'
p11
aS'/lanesainty/a-priest-bailed-up-bill-shorten-over-his-same-sex-marriage-c'
p12
aS'/chrisgeidner/virginia-school-district-asks-supreme-court-to-hear-transgen'
p13
aS'/chrisgeidner/federal-judge-orders-unc-not-to-enforce-bathroom-bill-provis'
p14
aS'/tamarlewin/wisconsin-surrogacy-case'
p15
aS'/natalyalobanova/tumblr-jokes-that-will-make-bi-people-laugh'
p16
aS'/davidmack/sydney-bathhouse-acid'
p17
aS'/dominicholden/hillary-clinton-endorsed-by-nations-largest-lgbt-business-gr'
p18
aS'/lanesainty/plebiscite-question-leaves-door-open-to-segregated-marriages'
p19
aS'/jelenaa/we-know-if-youre-a-top-or-bottom-based-on-which-d-g2wy'
p20
aS'/poetchenchen/poem-ode-to-rereading-rimbaud-in-lubbock-texas-by-chen-chen'
p21
aS'/robstott/drug-makers-application-for-crucial-hiv-pill-was-homophobic'
p22
aS'/skarlan/when-you-start-hormones'
p23
aS'/christianzamora/bianca-del-rio-has-a-new-movie-coming-out-and-the-trailer-wi'
p24
aS'/davidmack/east-penn-transgender-change-room'
p25
aS'/robstott/gilead-truvada-pbac'
p26
aS'/laurenstrapagiel/canada-gay-blood-ban'
p27
aS'/skarlan/this-town-hung-over-40-pride-flags-to-support-a-lesbian-coup'
p28
aS'/tanyachen/people-are-loving-these-we-dont-care-bathroom-signs'
p29
aS'/michaelblackmon/better-midler-apology'
p30
aS'/tasneemnashrulla/texas-judge-temporarily-blocks-federal-protections-for-trans'
p31
aS'/skarlan/18-things-any-lgbt-teen-getting-through-high-school-should-k'
p32
aS'/skarlan/weve-all-been-there'
p33
aS'/patrickstrudwick/this-drugs-company-has-refused-to-give-a-top-doctor-pills-to'
p34
aS'/skarlan/this-is-the-genderqueer-cookie-recipe-you-never-knew-you-nee'
p35
aS'/hannahjewell/weird-and-excellent-thoughts-about-gender-and-babies'
p36
aS'/alexandrearagao/rugby-player-proposal-olympics'
p37
aS'/jamieross/a-gay-mp-was-questioned-about-sharing-a-bed-with-his-partner'
p38
aS'/skarlan/xx-gifs-that-perfectly-describe-seeing-another-gay-couple-in'
p39
aS'/lanesainty/trans-teens-on-the-agenda-in-new-parliament'
p40
aS'/dominicholden/bathroom-access-a-must-for-transgender-people-in-federal'
p41
aS'/skarlan/it-gets-better-but-when'
p42
aS'/lanesainty/the-union-of-a-man-and-a-woman'
p43
aS'/chrisgeidner/appeals-court-denies-request-to-allow-mississippi-to-enforce'
p44
aS'/shannonkeating/stranger-things-and-compulsory-femininity'
p45
aS'/adambvary/inside-the-crazy-raunchy-politically-incorrect-sausage-party'
p46
aS'/azeenghorayshi/sex-testing-olympians'
p47
aS'/lanesainty/lgbt-indonesians-reel-from-violence-as-court-considers-banni'
p48
aS'/jarettwieselman/cbs-knows-its-tv-shows-need-to-do-better-with-diversity'
p49
aS'/lesterfeder/belizes-supreme-court-just-struck-down-a-law-that-made-homos'
p50
aS'/sallytamarkin/keep-your-nails-trimmed'
p51
aS'/nicolaang/what-is-it-like-growing-up-with-a-gay-parent-in-the-closet'
p52
aS'/saraspary/gay-couple-who-held-hands-in-sainsburys-told-they'
p53
aS'/lanesainty/this-is-how-transgender-teenagers-get-the-right-to-medical-t'
p54
aS'/dominicholden/barbra-streisand-clinton-fundraiser-targeting-lgbt-donors'
p55
aS'/lanesainty/eric-abetz-to-address-anti-gay-group-that-supports-conversio'
p56
aS'/robstott/this-volunteer-proposing-to-her-girlfriend-in-rio-will-melt'
p57
aS'/patrickstrudwick/nhs-responds-to-accusations-of-homophobia-over-hiv-preventio'
p58
aS'/whitneyjefferson/zachary-quinto-and-miles-mcmillan'
p59
aS'/shannonkeating/inside-the-worlds-largest-gay-rugby-tournament'
p60
aS'/skarlan/soccer-star-megan-rapinoe-published-a-touching-letter-to-her'
p61
aS'/skarlan/12-perfect-beach-outfits-for-people-who-arent-into-tradition'
p62
aS'/lesterfeder/ugandas-pride-parade-was-canceled-after-an-alleged-threat-fr'
p63
aS'/kristinharris/things-you-never-knew-about-andy-cohen'
p64
aS'/sylviaobell/ocean-full-of-lies'
p65
aS'/lesterfeder/police-raid-uganda-pride-during-transgender-pageant'
p66
aS'/skarlan/tsa-yay'
p67
aS'/chrisgeidner/federal-court-dismisses-alabama-chief-justices-civil-rights'
p68
aS'/chrisgeidner/supreme-court-halts-order-allowing-transgender-student-to-us'
p69
aS'/juliareinstein/will-frank-oceans-album-actually-come-out-friday'
p70
aS'/lanesainty/opponents-have-given-up-arguing-against-same-sex-marriage'
p71
aS'/soniathomas/look-at-these-stunning-pictures-of-transgender-classical-dan'
p72
aS'/dominicholden/trump-spokesperson-in-2012-gay-is-not-normal-accept-that'
p73
aS'/lanesainty/this-is-the-conservative-case-for-marriage-equality'
p74
aS'/jimdalrympleii/joe-biden-officiates-same-sex-wedding-for-two-white-house-st'
p75
aS'/tomchivers/the-hiv-prevention-drug-could-be-made-available-on-the-nhs'
p76
aS'/eleanorbate/reasons-i-am-in-love-with-jillian-holtzmann'
p77
aS'/chrisgeidner/federal-judge-refuses-to-allow-mississippi-to-enforce-anti-l'
p78
aS'/skarlan/clevelands-lgbt-advocates-are-taking-pride-into-their-own-ha'
p79
aS'/dominicholden/judge-appears-skeptical-of-need-for-north-carolinas-anti-tra'
p80
aS'/skarlan/tips-hat-taps-toes'
p81
aS'/sallytamarkin/what-queer-sex-advice-would-you-give-your-younger-self'
p82
aS'/laurenstrapagiel/bar-bathrooms'
p83
aS'/patrickstrudwick/people-at-high-risk-of-hiv-are-having-the-hiv-prevention-pil'
p84
aS'/caseygueren/so-youre-a-straight-guy-who-wants-to-try-butt-stuff'
p85
aS'/chrisgeidner/federal-appeals-court-rejects-protections-for-gay-people-und'
p86
aS'/lanesainty/karl-stefanovic-just-taught-everybody-how-not-to-talk-about'
p87
aS'/lanesainty/turnbull-is-already-hinting-at-a-marriage-plebiscite-delay'
p88
aS'/dominicholden/the-letter-q-was-kept-off-democratic-partys-lgbt-platform'
p89
aS'/skarlan/kristen-stewart-opens-up-about-her-girlfriend-in-elle-uk-int'
p90
aS'/dominicholden/12-states-will-support-obamas-transgender-policies-in-court'
p91
aS'/skarlan/theythem-pronouns'
p92
aS'/laurenstrapagiel/hot-oily-canadian-lesbians'
p93
aS'/lanesainty/trans-woman-brazilian-wax'
p94
aS'/dominicholden/people-were-unfazed-by-this-all-gender-restroom-at-the-democ'
p95
aS'/skarlan/going-for-gold-out-and-proud'
p96
aS'/tanyachen/people-really-love-this-brochure'
p97
aS'/blairbraverman/what-its-like-to-have-a-trans-partner'
p98
aS'/dominicholden/democrats-are-about-to-adopt-the-most-progressive-lgbt-platf'
p99
aS'/patrickstrudwick/this-gay-cancer-patient-was-told-fertility-treatment-was-onl'
p100
aS'/dominicholden/the-ncaa-wants-cities-to-prove-they-wont-discriminate-agains'
p101
aS'/alisoncaporimo/can-you-find-all-of-the-designers'
p102
aS'/skarlan/this-artist-is-using-comic-strips-and-illustrations-to-docum'
p103
aS'/taylormiller/these-painted-butts-show-precisely-why-we-love-summer'
p104
aS'/dominicholden/peter-thiel-calls-transgender-bathroom-access-a-distraction'
p105
aS'/lindseyadler/nba-reportedly-pulls-2017-all-star-game-from-north-carolina'
p106
aS'/lanesainty/students-say-a-story-about-a-school-banning-the-word-girls-i'
p107
aS'/dominicholden/will-mike-pence-dodge-lgbt-issues-at-the-republican-conventi'
p108
aS'/azeenghorayshi/repeating-the-berlin-patient'
p109
aS'/allanclarke/hiv-rates-in-the-indigenous-community-will-soar-expert-warns'
p110
aS'/adambvary/sulu-husband-star-trek-beyond'
p111
aS'/krishrach/the-girl-used-an-adorable-memory-journal-to-ask-out-her-crus'
p112
aS'/lanesainty/troye-sivans-mum-has-started-a-petition-to-support-lgbti-kid'
p113
aS'/victoriasanusi/time-to-make-history'
p114
aS'/willvarner/which-summer-butt-is-your-soulmate'
p115
aS'/skarlan/never-enough-bi-representation'
p116
aS'/lanesainty/heres-what-a-free-vote-on-marriage-equality-looks-like'
p117
aS'/jpbrammer/why-ive-avoided-dressing-more-femininely-until-now'
p118
aS'/meredithtalusan/before-breaking-up-this-trans-couple-took-gorgeous-photos-of'
p119
aS'/lanesainty/gayby-baby'
p120
aS'/soniathomas/this-photo-series-perfectly-depict-the-dual-lives'
p121
aS'/ishmaeldaro/gay-couple-told-not-to-hug-at-amusement-park'
p122
aS'/alannabennett/thats-besides-the-point-but-watch-it'
p123
aS'/meredithtalusan/trans-themed-web-series-her-story-nabs-an-emmy-nomination'
p124
aS'/adolfoflores/gay-latino-boxer-helps-launch-voting-campaign'
p125
aS'/lanesainty/transgender-guys-are-finding-acceptance-in-this-australian-c'
p126
aS'/skarlan/kate-mckinnon-could-be-a-gay-ghostbuster-but-director-paul-f'
p127
aS'/davidmack/trans-woman-arrested-in-target'
p128
aS'/chrisgeidner/virginia-school-board-asks-supreme-court-to-put-ruling-in-fa'
p129
aS'/ishmaeldaro/anglican-church-of-canada-same-sex-marriage-resolution'
p130
aS'/benhenry/gotta-catch-em-all'
p131
aS'/skarlan/new-me-new-do'
p132
aS'/lanesainty/marriage-equality-would-now-pass-easily-if-politicians-would'
p133
aS'/davidmack/finding-prince-charming'
p134
aS'/patrickstrudwick/this-trans-actor-saved-his-sisters-life'
p135
aS'/meredithtalusan/prominent-trans-lawyer-picked-to-run-national-trans-rights-l'
p136
aS'/chrisgeidner/mississippi-governor-asks-appeals-court-to-allow-enforcement'
p137
aS'/carolineodonovan/some-people-think-airbnb-should-have-an-lgbt-friendly-option'
p138
aS'/skarlan/this-trans-rights-ad-is-going-to-air-on-fox-news-during-the'
p139
aS'/nicolaang/when-did-you-lose-your-virginity'
p140
aS'/lanesainty/the-aids-epidemic-is-over-in-australia-experts-say'
p141
aS'/chrisgeidner/nebraska-leads-10-states-in-lawsuit-against-obama-pro-transg'
p142
aS'/adambvary/john-cho-sulu-a-gay-man-in-star-trek-beyond'
p143
aS'/chrisgeidner/mississippi-governor-to-appeal-ruling-halting-anti-lgbt-law'
p144
aS'/patrickstrudwick/the-uk-will-make-it-easier-for-trans-people-to-legally-chang'
p145
aS'/aurijackson/transgender-teens-got-their-dream-makeovers-and-they-slayed'
p146
aS'/tamerragriffin/chelsea-manning-rushed-to-hospital'
p147
aS'/skarlan/no-regrets-on-mullets'
p148
aS'/stephaniemcneal/this-teen-came-out-to-her-family-in-the-most-awesomely-funny'
p149
aS'/patrickstrudwick/the-secret-files-behind-the-collapse-of-britains-only-lgbt-d'
p150
aS'/krishrach/the-girls-parents-threw-her-the-best-damn-pride-party-after'
p151
aS'/laurenstrapagiel/black-lives-matters-pride-toronto'
p152
aS'/laurenstrapagiel/always-proud'
p153
aS'/claudiakoerner/people-are-loving-how-happy-justin-trudeau-looked-at-toronto'
p154
aS'/meredithtalusan/for-queer-people-in-orlando-grief-will-outlast-solidarity-ha'
p155
aS'/thechrishernandez/which-rupauls-drag-race-all-stars-2-queen-are-you-1lv0g'
p156
aS'/mariekirschen/how-dating-women-helped-me-make-peace-with-my-body-hair'
p157
aS'/chrisgeidner/federal-judge-halts-mississippi-anti-lgbt-law-from-going-int'
p158
aS'/lyapalater/danielle-brooks-and-samira-wiley-make-orange-and-black-mac-a'
p159
aS'/sallytamarkin/espns-body-issue-features-a-trans-athlete-for-the-first-time'
p160
aS'/lesterfeder/the-un-has-voted-to-create-its-first-lgbt-rights-watchdog'
p161
aS'/raquelwillis/why-i-debated-getting-my-breasts-augmented-and-why-i-finally'
p162
aS'/skarlan/calum-mcswiggan-charged-with-filing-false-police-re'
p163
aS'/skarlan/40-years-of-dykes-on-bikes-in-san-francisco'
p164
aS'/dominicholden/military-repealing-ban-on-transgender-people-serving'
p165
aS'/matwhitehead/who-is-will-bakers'
p166
aS'/dominicholden/estimated-transgender-population-doubles'
p167
aS'/bradesposito/ex-twitter-boyfriend'
p168
aS'/dominicholden/military-transgender-policy-expected-to-cover-these-issues'
p169
aS'/louispeitzman/queer-filmmakers-you-should-know'
p170
aS'/skarlan/heterosexualprideday-is-trending-on-twitter-and-people-have'
p171
aS'/mjs538/finally-a-day-for-str8s'
p172
aS'/laurenstrapagiel/stop-the-hate-orlando'
p173
aS'/soniathomas/queer-and-invisible'
p174
aS'/chrisgeidner/transgender-woman-elected-democrats-nominee-in-utah-senate-r'
p175
aS'/skarlan/youve-got-time-to-cry'
p176
aS'/imaansheikh/pakistan-transgender-marriage-fatwa'
p177
aS'/davidmack/pride-flag-proposal'
p178
aS'/skarlan/gay-youtuber-says-he-was-assaulted-officials-couldnt-substan'
p179
aS'/dominicholden/north-carolina-anti-lgbt-law-proposal'
p180
aS'/shanewhitaker/what-it-feels-like-to-tell-someone-youre-trans'
p181
aS'/nylawissa/theres-a-petition-for-star-wars-to-include-an-lgbt-character'
p182
aS'/eleanorbate/books-every-lgbt-person-absolutely-has-to-read'
p183
aS'/nicolaang/we-talked-about-being-bisexual-while-in-an-actual-closet'
p184
aS'/sarahaspler/puppy-pride'
p185
aS'/skarlan/love-it-here'
p186
aS'/krishrach/this-father-and-son-did-a-joint-makeup-portrait-and-its-unbe'
p187
aS'/lesterfeder/pope-francis-says-church-must-say-its-sorry-to-gays-and-othe'
p188
aS'/laurasilver/a-london-police-officer-proposed-to-his-partner-at-pride-and'
p189
aS'/lesterfeder/how-the-brexit-could-redraw-the-international-lgbt-rights-ma'
p190
aS'/matthewchampion/a-tory-cabinet-minister-just-came-out-during-pride'
p191
aS'/maryanngeorgantopoulos/nyc-pride'
p192
aS'/tasneemnashrulla/pride-emt-proposal'
p193
aS'/buzzfeednews/nyc-pride-2016'
p194
aS'/kimberleydadds/shove-a-rainbow-in-fears-face'
p195
aS'/skarlan/heres-everything-you-need-to-know-about-that-episode-in-oitn'
p196
aS'/dominicholden/ban-on-transgender-military-service-expected-to-be-lifted-in'
p197
aS'/dominicholden/obama-designates-first-lgbt-national-monument-at-site-of-sto'
p198
aS'/lanesainty/gay-woman-slams-anti-lgbti-flyers'
p199
aS'/norawhelan/trans-idols'
p200
aS'/claudiakoerner/nyc-pride-will-include-orlando-nightclub-owner-honor-the-vic'
p201
aS'/dominicholden/federal-court-orders-school-board-to-let-transgender-boy-use'
p202
aS'/niralishah/love-is-love-is-love'
p203
aS'/eleanorbate/lgbt-book-recommendations'
p204
aS'/laurenstrapagiel/bathhouse-raids-apology-toronto'
p205
aS'/stevenkanter/this-video-shows-the-importance-of-recognizing-emotional-abu'
p206
aS'/patrickstrudwick/brexit-could-trigger-erosion-of-lgbt-rights-top-lawyers-fear'
p207
aS'/bradesposito/scotty-does-know'
p208
aS'/estherwang/jackson-heights-lgbt-communities'
p209
aS'/lanesainty/this-straight-politician-says-hes-a-victim-of-bigotry-too'
p210
aS'/dominicholden/a-gop-congressman-is-planning-an-lgbt-nondiscrimination-bill'
p211
aS'/skarlan/lets-talk-tucking'
p212
aS'/laurenstrapagiel/trans-canadians-blood-donation'
p213
aS'/terripous/kiss-me-beneath-the-milky-twilight'
p214
aS'/jennaguillaume/dany-x-yara'
p215
aS'/sagehaley/which-gay-icon-are-you-1upre'
p216
aS'/dominicholden/senators-blast-discriminatory-ban-on-gay-men-giving-blood-an'
p217
aS'/michaelblackmon/how-similar-to-piper-chapman-are-you'
p218
aS'/dominicholden/this-gay-man-isnt-having-sex-for-a-year-to-donate-blood'
p219
aS'/nicolaang/gay-men-and-women-traded-dating-apps-for-a-week-and-things-g'
p220
aS'/mackenziekruvant/this-couples-pirate-themed-wedding-would-make-jack-sparrow-p'
p221
aS'/doree/the-gay-bathhouse-fire-of-1977'
p222
aS'/skarlan/so-haught-haught-damn'
p223
aS'/munchkin233/which-the-real-oneals-character-are-you-based-o-lurd'
p224
aS'/tasneemnashrulla/hrc-endorses-gun-control-reforms'
p225
aS'/craigsilverman/please-dont-hate-me'
p226
aS'/hayesbrown/a-bunch-of-diplomats-toured-the-stonewall-inn-in-the-wake-of'
p227
aS'/rigobertogonzalez/i-found-a-home-in-clubs-like-pulse-in-cities-like-orlando'
p228
aS'/lesterfeder/kenyan-court-upholds-anal-exams-for-homosexuality-charges'
p229
aS'/patrickstrudwick/watch-the-moment-a-15-year-old-came-out-to-their-parents-as'
p230
aS'/skarlan/the-gays-tm'
p231
aS'/dominicholden/democrats-want-41-million-more-for-hate-crimes-enforcement'
p232
aS'/fionarutherford/this-is-how-british-lgbt-muslims-are-responding-to-the-orlan'
p233
aS'/eleanorbate/to-being-an-us-for-once-instead-of-a-them'
p234
aS'/shannonkeating/finding-home'
p235
aS'/benhenry/your-new-bff'
p236
aS'/patrickstrudwick/prince-william-has-posed-for-the-cover-of-a-gay-magazine'
p237
aS'/adolfoflores/for-lgbt-latinos-a-need-not-to-be-made-invisible-in-tragedy'
p238
aS'/sallytamarkin/amelia-gapin'
p239
aS'/alimwatkins/us-officials-concerned-over-intelligence-gaps-that-failed-to'
p240
aS'/sallytamarkin/what-is-the-one-thing-you-want-to-hear-from-straight-allies'
p241
aS'/maryanngeorgantopoulos/man-convicted-of-killing-a-gay-man-in-new-york-city-sentence'
p242
aS'/rachelwmiller/my-fathers-vision'
p243
aS'/jamesharness/lady-gaga-gave-a-moving-speech-about-orlando'
p244
aS'/kimberleydadds/mara-wilson-reveals-shes-embraced-the-biqueer-label-lately-f'
p245
aS'/tasneemnashrulla/heroes-of-the-orlando-shooting'
p246
aS'/claudiakoerner/orlando-gunman-had-visited-club-before-used-gay-dating-apps'
p247
aS'/lesterfeder/orlando-is-pushing-lgbt-rights-and-immigration-towards-colli'
p248
aS'/buzzfeednews/whats-going-on-around-the-world-today-june-14-2016'
p249
aS'/eleanorbate/lgbt-movie-recs'
p250
aS'/hayesbrown/these-countries-that-condemned-the-orlando-attack'
p251
aS'/lesterfeder/un-security-council-condemns-orlando-attack-in-unprecedented'
p252
aS'/mbvd/rest-in-peace-together'
p253
aS'/skarlan/here-is-what-lgbt-muslims-want-you-to-know-after-the-orlando'
p254
aS'/dominicholden/lgbt-people-in-orlando-refuse-to-go-back-in-the-closet'
p255
aS'/christianzamora/this-is-what-pride-means'
p256
aS'/alanwhite/18-messages-to-the-world-from-the-london-vigil-for-orlando'
p257
aS'/rosebuchanan/owen-jones-walks-out-of-sky-news-after-presenters-deflect-na'
p258
aS'/lauragallant/we-are-all-born-naked-and-the-rest-is-drag'
p259
aS'/alanwhite/people-are-coming-out-as-lgbt-in-response-to-the-orlando-att'
p260
aS'/leticiamiranda/people-are-sharing-photos-of-twomenkissing-in-the-wake-of-th'
p261
aS'/buzzfeednews/whats-going-on-around-the-world-today-june-13-2016'
p262
aS'/carolineodonovan/host-who-denied-a-trans-woman-a-place-to-stay-removed-from-a'
p263
aS'/benhenry/tweet-thread-101'
p264
aS'/mbvd/front-pages-of-the-worlds-newspapers-mourn-the-orlando-shoot'
p265
aS'/craigsilverman/toronto-vigil-for-orlando-victims'
p266
aS'/stephaniemcneal/orlando-shooting-victims'
p267
aS'/claudiakoerner/la-pride-parade-marches-on'
p268
aS'/adolfoflores/man-arrested-weapons-said-he-was-headed-to-la-pride-festival'
p269
aS'/hayesbrown/world-leaders-express-condolences-in-wake-of-orlando-shootin'
p270
aS'/skarlan/this-is-what-lgbt-people-are-saying-in-the-wake-of-the-orlan'
p271
aS'/aliciamelvillesmith/nightclub-shooting-orlando-florida'
p272
aS'/alfredomurillo/im-gay-and-instagram-is-ruining-my-life'
p273
aS'/laurenstrapagiel/almost-adults'
p274
aS'/victoriasanusi/some-people-are-pissed-off-with-american-apparel-for-using-t'
p275
aS'/skarlan/people-cant-handle-the-way-this-girl-defended-her-girlfriend'
p276
aS'/lesterfeder/the-united-nations-will-consider-creating-an-lgbt-rights-off'
p277
aS'/rumaan/more-seduction-than-friendship'
p278
aS'/laurenstrapagiel/flawless'
p279
aS'/skarlan/the-pride-shopping-list-you-didnt-even-know-you-needed'
p280
aS'/tasneemnashrulla/amber-heard-was-arrested-for-allegedly-assaulting-her-girlfr'
p281
aS'/patrickstrudwick/mps-accuse-minister-of-having-head-in-the-sand-over-hiv-prev'
p282
aS'/chrisgeidner/virginia-school-board-to-ask-supreme-court-to-review-trans-s'
p283
aS'/lesterfeder/nigerias-anti-lgbt-law-could-be-revisited-says-the-former-pr'
p284
aS'/jennaguillaume/protect-yara-greyjoy-at-all-costs'
p285
aS'/scottybryan/john-oliver-on-orlando'
p286
aS'/dominicholden/these-new-subway-ads-will-promote-transgender-peoples-right'
p287
aS'/robstott/this-lesbian-couple-were-called-faggots-and-threatened-by-th'
p288
aS'/claudiakoerner/bernie-sanders-went-to-drag-brunch-in-west-hollywood'
p289
aS'/laurenstrapagiel/every-single-canadian-province-will-soon-fund-gender-affirmi'
p290
aS'/skarlan/the-kinky-boots-cast-released-a-music-video-supporting-trans'
p291
aS'/skarlan/powerful-images-from-pride-celebrations-all-around-the-world'
p292
aS'/lesterfeder/norway-will-soon-let-you-change-your-official-gender-with-ju'
p293
aS'/patrickstrudwick/britains-only-lgbt-domestic-abuse-charity-has-gone-into-liqu'
p294
aS'/hilarywardle/lesbian-relationships-two-months-vs-two-years'
p295
aS'/soniathomas/after-being-blessed-by-them-at-her-wedding-this-woman-made-a'
p296
aS'/dominicholden/cleveland-council-poised-to-vote-soon-on-transgender-restroo'
p297
aS'/ishmaeldaro/pride-flag-parliament-hill-canada'
p298
aS'/skarlan/the-latest-version-of-the-sims-is-finally-opening-up-style-o'
p299
aS'/patrickstrudwick/this-police-force-will-be-the-first-to-record-lgbt-domestic'
p300
aS'/skarlan/this-summer-camp-is-providing-a-place-for-trans-kids-to-simp'
p301
aS'/meredithtalusan/this-inspiring-hiretrans-photo-series-celebrates-trans-peopl'
p302
aS'/soniathomas/rainbow-coloured-sacred-thread'
p303
aS'/chrisgeidner/full-appeals-court-wont-reconsider-ruling-in-favor-of-obama'
p304
aS'/patrickstrudwick/nhs-refuses-to-provide-the-hiv-prevention-drug-for-the-secon'
p305
aS'/andreborges/people-really-hate-this-comedians-explaination-of-the-indian'
p306
aS'/soniathomas/13-pieces-of-wonderful-wisdom-that-ian-mckellen-has-for-youn'
p307
aS'/matwhitehead/a-dory-ble-couple-goals'
p308
aS'/morganshanahan/lgbt-family-stories'
p309
aS'/assmamaad/lesbian-mothers-disappeared-from-the-french-versio'
p310
aS'/patrickstrudwick/every-major-uk-hiv-organisation-calls-on-nhs-to-provide-prev'
p311
aS'/kateaurthur/the-triumphant-rise-and-mysterious-fall-of-person-of-interes'
p312
aS'/brentalmond/amazing-things-about-growing-your-family-throug-2cd0f'
p313
aS'/skarlan/music-so-gay'
p314
aS'/patrickstrudwick/sexual-health-charity-accuses-government-of-stalling-over-pe'
p315
aS'/alanwhite/youtube-reinstates-gay-fetish-websites-videos-after-claims-o'
p316
aS'/srishtidixit/beautiful'
p317
aS'/dominicholden/states-sue-transgender-students'
p318
aS'/beimengfu/meet-the-drag-queen-who-has-taken-chinas-internet-by-storm'
p319
aS'/lanesainty/final-australian-state-to-equalise-age-of-consent'
p320
aS'/alisonwillmore/these-three-movies-are-your-new-problematic-faves'
p321
aS'/dominicholden/clinton-fundraiser-slams-campaign-for-ignoring-trans-survey'
p322
aS'/skarlan/people-on-twitter-are-asking-marvel-to-give-captain-america'
p323
aS'/victoriasanusi/people-are-angry-with-time-magazines-use-of-the-rainbow-flag'
p324
aS'/lanesainty/victoria-apologises-for-historic-convictions'
p325
aS'/dominicholden/sanders-responded-to-transgender-rights-survey-but-clinton-d'
p326
aS'/krishrach/these-men-kissed-in-front-of-far-right-protestors-after-bein'
p327
aS'/kelleydunlap/demi-lovato-stood-up-for-trans-rights-at-the-billboard-music'
p328
aS'/amandaholland/do-i-want-to-be-her-or-do-i-want-to-fuck-her'
p329
aS'/mbvd/honolulu-set-to-settle-suit-from-lesbians'
p330
aS'/skarlan/everyone-is-loving-this-guys-tweet-about-secretly-taking-his'
p331
aS'/davidmack/a-gay-choir-says-they-were-humiliated-by-a-major-league-base'
p332
aS'/chrisgodfrey/this-is-what-workplace-discrimination-is-like-for-transgende'
p333
aS'/andreborges/an-artist-perfectly-illustrated-4-types-of-homophobes-youll'
p334
aS'/meredithtalusan/13-words-that-mean-something-totally-different-to-trans-peop'
p335
aS'/soniathomas/this-photo-series-on-bangladeshs-lgbt-community-is-hard-hitt'
p336
aS'/skarlan/trans-teen-response-viral'
p337
aS'/patrickstrudwick/this-lesbian-student-says-two-iconic-gay-clubs-turned-her-aw'
p338
aS'/craigsilverman/anti-trans-hoaxes-on-fake-news-websites'
p339
aS'/katebubacz/the-search-for-mr-gay-syria'
p340
aS'/skarlan/flannel-an-unrequited-love-story'
p341
aS'/dbabic/what-would-your-drag-name-be-based-on-your-choice-217zz'
p342
aS'/beimengfu/this-gay-couple-got-married-after-china-said-they-couldnt'
p343
aS'/laurenstrapagiel/wheres-the-mother'
p344
aS'/hayesbrown/mexicos-president-wants-marriage-equality-included-in-the-co'
p345
aS'/laurenstrapagiel/trans-pride-flag-in-ottawa'
p346
aS'/shannonkeating/gender-segregated-bathrooms-have-a-long-ugly-history'
p347
aS'/niralishah/the-trisha-project'
p348
aS'/morganshanahan/what-was-your-path-to-parenthood-as-an-lgbt-couple'
p349
aS'/skarlan/laura-jane-grace-burned-her-birth-certificate-on-stage-in-no'
p350
aS'/dominicholden/man-drops-lawsuit-that-claimed-whole-foods-wrote-fag-on-cake'
p351
aS'/nicolaang/this-couple-dressed-each-other-for-a-week-and-it-was-actuall'
p352
aS'/jemimaskelley/heaps-gay'
p353
aS'/skarlan/20-bathrooms-that-dont-give-a-fuck-about-whats-between-your'
p354
aS'/arianelange/straight-white-women-are-sliding-into-lena-waithes-dms'
p355
aS'/lanesainty/what-australia-should-know-about-voting-on-marriage'
p356
aS'/lesterfeder/japans-very-quiet-push-for-marriage-equality'
p357
aS'/meredithtalusan/telling-trans-stories-beyond-born-in-the-wrong-body'
p358
aS'/mikespohr/adoptive-parents-tell-us-about-the-moment-you-met-your-child'
p359
aS'/maryanngeorgantopoulos/texas-lt-governor-were-not-going-to-be-blackmailed-by-obama'
p360
aS'/katebubacz/these-portraits-of-mexican-drag-queens-will-make-your-day'
p361
aS'/benhenry/anal-sex-tips'
p362
aS'/dominicholden/new-obamacare-rule-protects-transgender-patients'
p363
aS'/lanesainty/gay-man-was-kicked-out-of-an-event-for-inappropriate-suit'
p364
aS'/kateaurthur/jodie-foster-directing-career-retrospective'
p365
aS'/soniathomas/mazhavil'
p366
aS'/skarlan/give-it-up-to-all-the-badass-ladies-rockin-suits-at-prom'
p367
aS'/srishtidixit/mr-gay-india-2016-answers-all-the-questions'
p368
aS'/dominicholden/obama-administration-to-tell-schools-transgender-students-ca'
p369
aS'/keelyflaherty/heres-our-first-look-at-laverne-cox-as-dr-frank-n-furter'
p370
aS'/benhenry/prowler-gay-porn-awards'
p371
aS'/dominicholden/massachusetts-senate-looks-ready-to-pass-transgender-rights'
p372
aS'/lanesainty/malcolm-turnbull-wins-mock-award-from-lgbt-community'
p373
aS'/dominicholden/nc-governor-says-attorney-generals-comments-an-insult-to-our'
p374
aS'/augustafalletta/your-vagina-is-beautiful'
p375
aS'/leticiamiranda/spains-first-openly-gay-soccer-referee-has-quit-over-abuse-a'
p376
aS'/lesterfeder/italy-is-finally-creating-civil-unions-for-same-sex-couples'
p377
aS'/tasneemnashrulla/north-carolina-board-rethinks-allowing-pepper-spray-in-high'
p378
aS'/dulce816/what-tegan-and-sara-song-are-you-based-on-your-zod-17luv'
p379
aS'/lanesainty/diverse-families-program-for-schools'
p380
aS'/terripous/grooms-body-image'
p381
aS'/hilarywardle/the-gay-noughties'
p382
aS'/chrisgeidner/same-sex-couples-challenge-recusal-provision-of-mississippis'
p383
aS'/skarlan/we-asked-people-to-illustrate-what-their-gender-dysphoria-fe'
p384
aS'/emaoconnor/what-does-stonewall-means-to-you'
p385
aS'/maggyvaneijk/marissa-is-a-dick'
p386
aS'/danvergano/fauci-at-buzzfeed'
p387
aS'/mattortile/geraldine-roman'
p388
aS'/maryanngeorgantopoulos/north-carolina-governor-responds-to-the-justice-department'
p389
aS'/mjs538/25-faces-that-almost-every-gay-guy-will-recognize'
p390
aS'/annakopsky/just-butt-stuff'
p391
aS'/lanesainty/catholic-church-rejected-changes-to-marriage-booklet'
p392
aS'/meredithtalusan/trans-women-thank-their-moms-on-mothers-day'
p393
aS'/skarlan/for-everyone-celebrating-with-two-moms-this-mothers-day'
p394
aS'/annaborges/i-am-so-sorry'
p395
aS'/patrickstrudwick/child-abuse-survivor-calls-for-inquiry-into-police-handling'
p396
aS'/dominicholden/methodist-pastor-wedding'
p397
aS'/patrickstrudwick/this-is-what-happens-when-you-report-historical-sexual-abuse'
p398
aS'/kevinsmith/who-should-you-get-hitched-to'
p399
aS'/shannonkeating/movies-young-lgbt-characters'
p400
aS'/benhenry/one-top-left-in-the-entire-world'
p401
aS'/skarlan/people-talk-about-the-very-first-time-they-put-on'
p402
aS'/tasneemnashrulla/this-trans-woman-recorded-being-allegedly-attacked-on-a-trai'
p403
aS'/dominicholden/justice-department-says-north-carolina-anti-lgbt-law-violate'
p404
aS'/dominicholden/alabama-city-council-recalls-anti-transgender-bathroom-law'
p405
aS'/taylormiller/we-went-backstage-at-a-mens-fashion-show-and-did-not-regret'
p406
aS'/benhenry/where-are-you-mr-right'
p407
aS'/patrickstrudwick/this-man-got-an-email-from-australian-immigration-to-say-his'
p408
aS'/robstott/r-u-a-surplus-or-a-deficit'
p409
aS'/beimengfu/a-us-diplomat-married-his-chinese-boyfriend-and-it-was-adora'
p410
aS'/laurenstrapagiel/montreal-trans-clinic'
p411
aS'/dominicholden/alabama-city-considers-repealing-extreme-bathroom-law'
p412
aS'/tasneemnashrulla/active-shooter-at-target-was-actually-man-protesting-against'
p413
aS'/benhenry/bottoms-up'
p414
aS'/dominicholden/mississippis-gay-adoption-ban-dead-after-state-fails-to-appe'
p415
aS'/alisoncaporimo/give-elsa-a-gf'
p416
aS'/dominicholden/heres-why-this-ad-featuring-a-transgender-man-is-a-big-deal'
p417
aS'/davidmack/this-free-life'
p418
aS'/chrisgeidner/loretta-lynch-has-an-agenda-and-the-clock-is-ticking'
p419
aS'/lanesainty/gay-conversion-advocate-to-speak-at-university'
p420
aS'/patrickstrudwick/this-teenager-cant-get-a-bank-account-because-they-dont-iden'
p421
aS'/meredithtalusan/when-trans-selfies-in-bathrooms-go-viral'
p422
aS'/dominicholden/feds-publish-records-on-schools-allowed-to-discriminate-agai'
p423
aS'/skarlan/xx-television-moments-that-will-make-queer-women-s'
p424
aS'/dominicholden/legal-groups-urge-feds-to-threaten-north-carolinas-school-fu'
p425
aS'/laurenbranson/we-asked-queer-women-what-they-love-about-other-women'
p426
aS'/maryanngeorgantopoulos/ncaa-adopts-new-requirements-to-protect-against-discriminati'
p427
aS'/dominicholden/aclu-considers-legal-challenge-to-anti-transgender-restroom'
p428
aS'/skarlan/psa-stop-killing-queer-women-on-television'
p429
aS'/dominicholden/dems-will-urge-gop-house-leaders-to-hold-hearing-on-lgbt-rig'
p430
aS'/lanesainty/queer-housing-australia'
p431
aS'/srishtidixit/watch-deepika-padukone-and-ruby-rose-dance-off-to-honey-sing'
p432
aS'/lesterfeder/remembering-the-lgbt-activists-hacked-to-death-by-al-qaeda-i'
p433
aS'/alivelez/music-makes-the-people-come-together-yeah'
p434
aS'/maryanngeorgantopoulos/lebanese-rock-band-told-they-cant-perform-in-jordan'
p435
aS'/davidmack/caitlyn-jenner-cruz-trump'
p436
aS'/jemimaskelley/this-is-a-joke-plz-dont-leave-angry-comments'
p437
aS'/dominicholden/transgender-woman-restroom-north-carolina-governors-office'
p438
aS'/skarlan/this-is-what-its-really-like-to-wear-a-chest-binder'
p439
aS'/lesterfeder/lgbt-magazine-editor-hacked-to-death-amid-wave-of-violence-a'
p440
aS'/laurenstrapagiel/these-ontario-parents-want-to-support-other-south-asians-wit'
p441
aS'/annakopsky/whats-your-most-awkward-anal-sex-horror-story'
p442
aS'/skarlan/this-is-what-its-like-to-work-out-at-the-countrys-only-queer'
p443
aS'/dominicholden/methodist-church-marrying-two-gay-men-in-an-act-of-c'
p444
aS'/meredithtalusan/am-i-still-straight'
p445
aS'/jimwaterson/this-student-just-came-out-as-non-binary-to-barack-obama'
p446
aS'/leticiamiranda/trans-bathroom-selfie'
p447
aS'/annapulley/7-lesbian-sex-haikus-with-cats'
p448
aS'/skarlan/queer-couples-open-up-about-body-insecurities'
p449
aS'/tasneemnashrulla/trump-says-caitlyn-jenner-can-use-whichever-bathroom'
p450
aS'/lanesainty/trans-woman-in-male-prison-in-wa'
p451
aS'/jaimieetkin/jodie-foster-says-the-women-in-hollywood-conversation-is-ove'
p452
aS'/marisacarroll/the-bride-wore-pajamas'
p453
aS'/nicolasmedinamora/uk-warns-travelers-of-anti-lgbt-laws-in-north-carolina-and-m'
p454
aS'/skarlan/the-lesbian-princess-story-youve-always-wanted-is-finally-he'
p455
aS'/aliceworkman/victorias-got-pride'
p456
aS'/lanesainty/this-is-real-its-their-life-its-reality'
p457
aS'/dominicholden/whole-foods-against-pastor-gayslur-cake'
p458
aS'/chrisgeidner/federal-appeals-court-upholds-obama-administration-transgend'
p459
aS'/patrickstrudwick/nhs-to-reconsider-its-decision-not-to-provide-the-hiv-preven'
p460
aS'/dominicholden/texas-pastor-claims-whole-foods-sold-cake-with-gay-slur-on-i'
p461
aS'/dominicholden/clinton-campaign-targets-lgbt-voters-in-push-for-decisive-ne'
p462
aS'/javiermoreno/a-photographer-captured-a-two-male-lions-exhibiting-mating-l'
p463
aS'/kevinmcshane/weird-things-gay-couples-do-in-public-vs-private'
p464
aS'/meredithtalusan/the-philippines-call-center-revolution'
p465
aS'/meredithtalusan/transgender-party'
p466
aS'/kaichengthom/the-search-for-trans-womens-orgasms'
p467
aS'/mathewjedeikin/i-got-married-and-changed-my-name'
p468
aS'/caitlinjinks/ruby-rose-has-hit-out-at-publications-for-taking-her-quotes'
p469
aS'/danvergano/first-sexual-transmission-of-zika-in-gay-men'
p470
aS'/dominicholden/tennessee-bill-letting-counselors-refuse'
p471
aS'/mathewjedeikin/lgbt-people-recreate-iconic-movie-posters'
p472
aS'/alexanderlondon/our-stories-are-as-unlimited-as-our-selves'
p473
aS'/lanesainty/this-man-was-brutally-bashed-for-wearing-a-dress-and-makeup'
p474
aS'/carolinekee/never-eat-chipotle-the-day-before'
p475
aS'/tasneemnashrulla/this-is-why-a-trans-musician-is-performing-in-north-carolina'
p476
aS'/dominicholden/democratic-louisiana-governor-rescinds-republican-predecesso'
p477
aS'/tariniparti/corporations-criticize-nc-lgbt-law-but-arent-dropping-donati'
p478
aS'/jimdalrympleii/judge-denies-couples-bid-for-chinas-first-ever-same-sex-marr'
p479
aS'/beckycatherineharris/these-7-androgynous-models-are-so-freaking-beautiful'
p480
aS'/dominicholden/north-carolina-gov-issues-executive-order-in-attempt-to-clar'
p481
aS'/sallytamarkin/28-sex-toy-tips-that-will-change-the-way-you-orgasm'
p482
aS'/augustafalletta/makeup-tips-for-trans-women'
p483
aS'/caitlinjinks/ruby-rose-is-a-gift-to-us-all'
p484
aS'/benhenry/gay-sex-in-porn-vs-gay-sex-in-real-life'
p485
aS'/tasneemnashrulla/here-are-the-people-and-companies-that-refuse-to-work-in-nor'
p486
aS'/nicolaang/gays-vs-lesbians-friday-night-swap'
p487
aS'/laurenstrapagiel/cutest-canadian-coming-out-stories'
p488
aS'/dominicholden/clinton-and-sanders-on-lgbt-state-laws'
p489
aS'/skarlan/singer-brandi-carlile-makes-a-case-for-continueing-to-perfor'
p490
aS'/ishmaeldaro/bryan-adams-mississippi'
p491
aS'/stephaniemcneal/a-trans-womans-coworkers-threw-her-a-party-after-she-came-ou'
p492
aS'/lanesainty/these-older-lgbt-allies-dressed-as-angels-to-protect-teens-a'
p493
aS'/lanesainty/once-upon-a-time'
p494
aS'/patrickstrudwick/britains-only-domestic-violence-charity-for-lgbt-people-days'
p495
aS'/caseygueren/get-your-penis-tested'
p496
aS'/davidmack/joel-mchale-is-bae'
p497
aS'/patrickstrudwick/years-years-singer-reveals-10-year-struggle-with-body-image'
p498
aS'/shannonkeating/when-my-oldest-friend-did-something-unforgivable'
p499
aS'/kateaurthur/nothing-left-unsaid-gloria-vanderbilt-anderson-cooper'
p500
aS'/dominicholden/lgbt-family-group-cancels-north-carolina-event-citing-safety'
p501
aS'/laurasnapes/how-the-rest-of-the-world-caught-up-to-tegan-and-sara'
p502
aS'/briannasacks/what-happened-in-the-news-04-08-16'
p503
aS'/chrisgeidner/federal-appeals-court-yes-puerto-ricos-same-sex-marriage-ban'
p504
aS'/hayesbrown/colombia-just-affirmed-that-same-sex-couples-can-get-married'
p505
aS'/skarlan/17-faces-any-woman-whos-had-sex-with-another-woman-will-unde'
p506
aS'/azeenghorayshi/conversation-changes-transgender-attitudes'
p507
aS'/lanesainty/this-transgender-person-was-refused-a-haircut-because-theyre'
p508
aS'/patrickstrudwick/airport-staff-confiscated-the-ashes-of-a-british-mans-husban'
p509
aS'/sahilrizwan/cards-for-humanity'
p510
aS'/davidmack/mississippi-company-reax'
p511
aS'/dominicholden/feds-ready-for-transgender-discrimination-complaints-in-nort'
p512
aS'/caseyrackham/things-that-make-bisexual-women-roll-their-eyes'
p513
aS'/laurenstrapagiel/tell-us-your-canadian-coming-out-stories'
p514
aS'/meredithtalusan/this-trans-artist-created-beautiful-nude-portraits-of-other'
p515
aS'/robstott/a-condom-company-mocked-hiv-after-an-angry-response-to-its-a'
p516
aS'/caitlinjinks/ruby-rose-and-nina-dobrev-have-an-adorable-prank-war'
p517
aS'/juliapugachevsky/gay-men-watch-virtual-reality-porn-as-straight-men'
p518
aS'/tariniparti/southern-gop-senators-distance-themselves-from-the-debate-ov'
p519
aS'/katieheaney/after-i-came-out-none-of-my-clothes-seemed-to-fit'
p520
aS'/dominicholden/paypal-cancels-north-carolina-expansion-to-protest-anti-lgbt'
p521
aS'/robstott/a-condom-company-advertised-on-tinder-and-used-aids-as-a-pun'
p522
aS'/garthgreenwell/how-i-fell-in-love-with-the-beautiful-art-of-cruising'
p523
aS'/skarlan/people-cant-handle-this-teens-brutal-takedown-of-her-homopho'
p524
aS'/christianzamora/advice-from-the-glaad-media-awards'
p525
aS'/sallytamarkin/what-do-you-wish-you-knew-before-you-started-using-sex-toys'
p526
aS'/benhenry/two-bottoms-dont-make-a-top'
p527
aS'/skarlan/trans-man-makes-business-cards-to-explain-why-hes-using-the'
p528
aS'/mathewjedeikin/taylor-swift-showed-up-at-the-glaad-awards-to-support-ruby-r'
p529
aS'/davidmack/caitlyn-jenner-is-going-to-be-in-the-next-season-of-transpar'
p530
aS'/skarlan/trans-people-share-the-stories-behind-their-ink'
p531
aS'/laurenbranson/questions-cis-women-have-for-trans-women'
p532
aS'/srishtidixit/bas-soch-badalni-hai'
p533
aS'/meredithtalusan/all-the-questions-you-had-about-tucking-but-were-afraid-to-a'
p534
aS'/aliciamelvillesmith/father-charged-with-shooting-son-dead-because-he-was-gay-pro'
p535
aS'/caseygueren/what-sex-questions-do-you-want-answered'
p536
aS'/benhenry/get-me-a-tall-glass-of-water'
p537
aS'/patrickstrudwick/the-department-of-health-doesnt-know-whos-responsible-for-th'
p538
aS'/chrisgeidner/federal-judge-halts-enforcement-of-mississippi-same-sex-adop'
p539
aS'/patrickstrudwick/the-scottish-labour-leader-just-came-out-and-no-one-batted-a'
p540
aS'/meredithtalusan/what-people-tell-gender-non-binary-people'
p541
aS'/azeenghorayshi/surgeons-perform-first-hiv-positive-organ-transplants'
p542
aS'/dominicholden/mississippi-scheduled-for-final-vote-on-anti-lgbt-religious'
p543
aS'/skarlan/this-6-year-old-had-the-most-heartwarming-reaction-to-the-ne'
p544
aS'/lanesainty/moments-in-transition'
p545
aS'/skarlan/trans-student-writes-powerful-facebook-post-to-north-carolin'
p546
aS'/emaoconnor/north-carolina-ag-refuses-to-defend-anti-lgbt-law'
p547
aS'/dominicholden/transgender-student-settles-locker-room-case-with-university'
p548
aS'/laurenstrapagiel/these-montreal-artists-recreated-90s-teen-heartthrobs-with-w'
p549
aS'/jemimaskelley/coming-out-stories'
p550
aS'/curlyvelasquez/abuela-talks-about-lesbians'
p551
aS'/mikehayes/transgender-woman-raped-inside-bathroom-at-historic-gay-bar'
p552
aS'/dominicholden/nc-anti-lgbt-law-lawsuit'
p553
aS'/meredithtalusan/meet-the-first-transgender-cover-model-for-mens-health-germa'
p554
aS'/carolinekee/what-do-you-wish-you-knew-about-anal'
p555
aS'/shannonkeating/desert-hearts-and-lesbian-happy-endings'
p556
aS'/dominicholden/backlash-grows-against-north-carolinas-anti-lgbt-law'
p557
aS'/alisoncaporimo/marry-me-shane'
p558
aS'/arianelange/hollywood-threatens-to-boycott-georgia-over-anti-lgbt-bill'
p559
aS'/ianxcarlos/a-simple-50-step-guide-to-your-first-unimaginable-tragedy'
p560
aS'/alannabennett/peeno-noir-honey-jar'
p561
aS'/patrickstrudwick/heres-the-nhs-file-that-contradicts-its-reason-for-not-rolli'
p562
aS'/oceanvuong/poem-trevor-by-ocean-vuong'
p563
aS'/skarlan/this-is-how-trans-people-and-their-allies-are-reacting-to-th'
p564
aS'/ishmaeldaro/concerned-alberta-mother-uh-oh'
p565
aS'/tomchivers/lesbian-gay-and-bi-britons-twice-as-likely-to-suffer-mental'
p566
aS'/laurenstrapagiel/11-incredible-images-from-the-worlds-largest-trans-archvies'
p567
aS'/skarlan/jenny-or-tina-ok'
p568
aS'/dominicholden/north-carolina-lgbt-discrimintion'
p569
aS'/patrickstrudwick/councils-hit-back-at-nhs-as-row-over-hiv-prevention-drug-esc'
p570
aS'/caitlinjinks/ruby-rose-says-jaden-smith-is-a-role-model'
p571
aS'/patrickstrudwick/government-confirms-poppers-will-now-definitely-not-be-banne'
p572
aS'/benhenry/no-more-rear-fear'
p573
aS'/stephaniefrosch/im-a-sex-worker-but-im-not'
p574
aS'/christianzamora/what-would-your-drag-name-be'
p575
aS'/patrickstrudwick/shocked-hiv-charities-blast-nhs-for-u-turn-on-drug-that-prev'
p576
aS'/dominicholden/nfl-suggests-atlanta-could-lose-super-bowl-bid-over-religiou'
p577
aS'/skarlan/sobs-into-meal-for-one'
p578
aS'/patrickstrudwick/gay-cures-are-harmful-and-dont-work-says-worlds-largest-body'
p579
aS'/andreborges/this-mother-speaking-about-accepting-her-bisexual-daughter-w'
p580
aS'/taniasafi/fucking-jenny-schecter'
p581
aS'/meredithtalusan/trans-woman-in-russia'
p582
aS'/amandaholland/when-you-your-bff-have-a-crush-on-the-same-person'
p583
aS'/meredithtalusan/on-living-between-homes'
p584
aS'/caseygueren/going-down'
p585
aS'/patrickstrudwick/this-is-what-its-like-being-an-ambassador-to-an-anti-gay-cou'
p586
aS'/louispeitzman/pee-wees-big-holiday-is-queer-af'
p587
aS'/dominicholden/transgender-woman-loses-anti-discrimination-case-against-blo'
p588
aS'/lanesainty/this-is-not-a-joke'
p589
aS'/tellshow/lena-waithe-gave-us-all-relationship-goals'
p590
aS'/lesterfeder/indonesian-police-say-they-disrupted-same-sex-wedding-in-rur'
p591
aS'/norawhelan/nothing-but-light-anastasia-kuba-nude-photo-project'
p592
aS'/robstott/george-christensen-hasnt-read-all-of-the-safe-schools-progra'
p593
aS'/skarlan/22-images-youll-only-understand-if-youre-a-lesbian-who-watch'
p594
aS'/eleanorbate/sashay-away'
p595
aS'/dominicholden/georgia-house-passes-compromise-on-anti-gay-bill'
p596
aS'/lesterfeder/an-ambassador-visited-a-school-with-his-husband-and-now-reli'
p597
aS'/patrickstrudwick/the-ban-on-poppers-is-not-legally-binding-say-government-adv'
p598
aS'/jarettwieselman/how-this-real-oneals-star-is-modernizing-lgbt-visibility'
p599
aS'/dominicholden/kentucky-senate-passes-bill-that-may-limit-lgbt-protections'
p600
aS'/floperry/life-as-a-gay-man-vs-life-as-a-lesbian'
p601
aS'/skarlan/queer-women-on-tv-ranked-by-how-hard-you-cried-when-they-wer'
p602
aS'/caseygueren/tell-us-what-makes-oral-sex-awesome'
p603
aS'/dominicholden/white-appoints-first-transgender-person-as-primary-lgbt-liai'
p604
aS'/ishmaeldaro/justin-trudeau-degas-sikorski-card'
p605
aS'/skarlan/gal-pal-warriors-no-more'
p606
aS'/christianzamora/which-season-8-queen-of-rupauls-drag-race-are-you'
p607
aS'/meredithtalusan/this-trans-singer-isnt-taking-hormones'
p608
aS'/nicolang/we-talked-to-people-in-poly-relationships-about-what-makes-a'
p609
aS'/skarlan/lgbt-youth-are-sharing-their-stories-with-visibleme-on-insta'
p610
aS'/patrickstrudwick/this-iconic-gay-activist-says-gay-men-should-take-responsibi'
p611
aS'/dominicholden/tennessee-governor-concerned-about-anti-transgender-student'
p612
aS'/benhenry/theres-no-place-like-homo'
p613
aS'/juliareinstein/caitlyn-jenner-is-the-new-face-of-hms-sportswear-line'
p614
aS'/dominicholden/missouri-senate-anti-gay-bill'
p615
aS'/terripous/sleep-no-more'
p616
aS'/tellshow/learning-to-let-go-by-living'
p617
aS'/lorynbrantz/types-of-awkward-sex-you-probably-had-in-your-youth'
p618
aS'/lanesainty/plebiscite-or-parliamentary'
p619
aS'/dominicholden/james-deens-porn-company-cited-for-condom-and-safety-violati'
p620
aS'/juliegerstein/what-a-feminist-looks-like'
p621
aS'/lanesainty/this-is-what-the-real-piper-wants-you-to-know-about-prison'
p622
aS'/chrisgeidner/federal-judge-no-marriage-equality-in-puerto-rico'
p623
aS'/gyanyankovich/wear-it-purple-at-mardi-gras'
p624
aS'/arianelange/second-wachowski-sibling-comes-out-as-trans'
p625
aS'/lyapalater/troye-sivan-helped-a-teenage-girl-come-out-to-her'
p626
aS'/jarettwieselman/inside-the-years-most-important-television-show'
p627
aS'/dominicholden/missouri-democrats-have-been-filibustering-an-anti-gay-bill'
p628
aS'/lanesainty/8-things-you-should-know-about-masha-gessen'
p629
aS'/arianelange/darryl-is-bisexual-nbd'
p630
aS'/lanesainty/meet-the-straight-parents-marching-for-their-lgbt-kids'
p631
aS'/taniasafi/hard-ons-must-be-hard-tho'
p632
aS'/dominicholden/gay-republican-group-urges-trump-to-clarify-same-sex-marriag'
p633
aS'/christianzamora/rupaul-gives-advice'
p634
aS'/bradesposito/for-the-last-time'
p635
aS'/kennymoffitt/this-spoken-word-poem-is-for-anyone-whos-been-told-their-sex'
p636
aS'/mathewjedeikin/kesha-honored-with-hrc-visibility-award'
p637
aS'/skarlan/dapper-brides'
p638
aS'/lanesainty/australians-could-vote-on-same-sex-marriage-by-the-end-of-th'
p639
aS'/lesterfeder/indonesian-lawmakers-prepare-lgbt-propaganda-ban'
p640
aS'/lanesainty/meet-the-kids-fighting-for-the-right-to-transition'
p641
aS'/patrickstrudwick/this-is-domestic-abuse-when-lgbt'
p642
aS'/taylorfreeman/lesbian-boot-camp'
p643
aS'/meredithtalusan/what-trans-women-are-actually-thinking-when-we-take-selfies'
p644
aS'/skarlan/a-subtle-reminder-that-sarah-paulson-and-holland-taylor-are'
p645
aS'/augustafalletta/zara-ungendered-clothing'
p646
aS'/benhenry/douches-at-the-ready'
p647
aS'/patrickstrudwick/mp-calls-on-victims-of-gay-cures-to-share-their-stories'
p648
aS'/lesterfeder/china-is-censoring-gay-characters-from-tv-shows-and-online-d'
p649
aS'/jemimaskelley/drag-secrets'
p650
aS'/caitlinjinks/the-oblina-costume-though'
p651
aS'/matwhitehead/will-bottom-for-nachos'
p652
aS'/skarlan/maybe-someday'
p653
aS'/taniasafi/lgbt-reprezent'
p654
aS'/jennaguillaume/photo-of-two-new-dads-being-used-in-anti-gay-campaign'
p655
aS'/benhenry/sex-and-the-gay-city'
p656
aS'/lanesainty/gay-author-told-he-cant-talk-about-new-book'
p657
aS'/nicolaang/12-openly-gay-oscar-winners'
p658
aS'/lanesainty/this-woman-penned-an-emotional-status-about-her-late-wife'
p659
aS'/robstott/where-do-you-get-a-giant-condom-anyway'
p660
aS'/dominicholden/draft-south-dakota-gov-veto-anti-transgender-student-restr'
p661
aS'/chrisgeidner/federal-agency-sues-employers-alleging-anti-gay-bias-is-bann'
p662
aS'/katieheaney/the-mantra-of-idk'
p663
aS'/skarlan/we-asked-trans-people-to-share-the-unique-stories-behind-the'
p664
aS'/dominicholden/kfc-fires-manager-for-discriminating-against-transgender-wom'
p665
aS'/patrickstrudwick/trans-therapists-sign-open-letter-to-mental-health-body-over'
p666
aS'/jemimaskelley/whats-your-coming-out-story'
p667
aS'/robstott/please-stop-this'
p668
aS'/laurenstrapagiel/truvada-prep-approved-canada'
p669
aS'/rachelkaadzighansah/the-weight-of-james-arthur-baldwin-203'
p670
aS'/scottybryan/dustin-lance-black-has-reminded-sam-smith-that-other-gay-peo'
p671
aS'/terripous/wearhouse-not-warehouse'
p672
aS'/lanesainty/heres-what-its-like-being-a-gay-athlete'
p673
aS'/sheridanwatson/sam-smith-got-it-kind-of-wrong'
p674
aS'/skarlan/share-your-last-time'
p675
aS'/meredithtalusan/this-trans-artist-started-a-stunning-photo-series-by-taking'
p676
aS'/skarlan/land-this-plane-carol'
p677
aS'/patrickstrudwick/inside-the-last-days-of-britains-biggest-gay-sauna'
p678
aS'/juliareinstein/spin-class-proposal'
p679
aS'/davidmack/finnpoe-forever'
p680
aS'/meredithtalusan/25-years-of-transphobia-in-comedies'
p681
aS'/kennymoffitt/heres-how-black-guys-react-to-seeing-no-blacks-on-grindr'
p682
aS'/katangus/pray-for-delphine'
p683
aS'/lesterfeder/this-powerful-remix-of-same-love-has-been-banned-in-kenya'
p684
aS'/lesterfeder/former-indonesian-cabinet-minister-calls-for-homosexuals-to'
p685
aS'/dominicholden/religious-freedom-bills-surge-after-last-years-same-sex-marr'
p686
aS'/sophiegadd/things-that-will-make-lesbians-laugh'
p687
aS'/robstott/this-is-why-safe-schools-matters'
p688
aS'/lesterfeder/muslim-school-for-trans-women-shut-down-in-indonesia'
p689
aS'/robstott/out-of-the-bars-into-the-streets-why-mardi-gras-matters'
p690
aS'/azeenghorayshi/man-on-prep-gets-hiv'
p691
aS'/lesterfeder/italian-senate-adopts-civil-union-bill'
p692
aS'/benhenry/you-dont-understand-the-struggle'
p693
aS'/floperry/things-that-mildly-thrill-all-lesbians'
p694
aS'/skarlan/this-instagram-is-sharing-lgbt-peoples-ultimate-tbt-photos'
p695
aS'/tellshow/how-two-marriage-equality-heroes-first-crossed-paths'
p696
aS'/patrickstrudwick/man-charged-with-rape-and-possible-transmission-of-hiv'
p697
aS'/lanesainty/these-people-want-you-to-know-what-its-like-to-be-a-queer-re'
p698
aS'/robstott/its-not-all-rainbows-and-speedos'
p699
aS'/jennaguillaume/my-youth-is-yours'
p700
aS'/skarlan/yaass-von-trapp'
p701
aS'/craigsilverman/welcome-home-sailor'
p702
aS'/hilarywardle/things-about-the-l-word-that-make-absolutely-no-fucking-sens'
p703
aS'/ishmaeldaro/justin-trudeau-will-be-the-first-prime-minister-to-attend-to'
p704
aS'/dominicholden/charlotte-north-carolina-passes-lgbt-rights-law-defying-gove'
p705
aS'/lanesainty/this-12-year-old-transgender-girl-has-a-request-for-help'
p706
aS'/louispeitzman/the-nightmare-behind-the-gayest-horror-film-ever-made'
p707
aS'/caitlinjinks/ruby-rose-and-ellen-page-are-goals'
p708
aS'/mckaycoppins/source-robocall-blasts-trump-as-pro-gay-urges-south-carolini'
p709
aS'/carolinekee/slip-n-slide-into-the-bedroom'
p710
aS'/jemimaskelley/we-asked-people-their-favourite-things-about-being-lgbt'
p711
aS'/chelseaedgar/this-trans-sex-worker-wants-to-use-her-ivy-league-education'
p712
aS'/kennymoffitt/this-is-what-happens-when-you-fall-for-your-hookup'
p713
aS'/patrickstrudwick/top-therapist-quits-professional-body-and-accuses-it-of-fail'
p714
aS'/jimdalrympleii/people-in-the-philipines-burned-nikes-after-the-company-drop'
p715
aS'/skarlan/this-coloring-book-is-here-to-help-all-lesbians-through-thei'
p716
aS'/sarahaspler/ellen-paige-or-ellen-page'
p717
aS'/lesterfeder/indonesia-is-fighting-about-lgbt-rights-like-it-never-has-be'
p718
aS'/lanesainty/these-giant-portraits-show-kids-in-same-sex-families'
p719
aS'/sahilrizwan/these-bollywood-actors-had-the-perfect-response-when-asked-i'
p720
aS'/kanediep/when-youre-jealous-of-an-ex'
p721
aS'/briangalindo/gus-kenworthys-instagram-is-the-prettiest-account-you-should'
p722
aS'/benhenry/wheres-the-sean-cody-logo'
p723
aS'/isabellelaureta/my-humanity-is-my-birthright'
p724
aS'/lanesainty/religious-leaders-say-nope-to-plebiscite'
p725
aS'/skarlan/to-dam-or-not-to-dam-that-is-the-question'
p726
aS'/skarlan/8-animals-species-that-are-totally-gay'
p727
aS'/dominicholden/south-dakota-becomes-first-state-to-pass-anti-transgender-st'
p728
aS'/laurenstrapagiel/an-edmonton-man-found-a-gay-slur-written-on-his-valentine-at'
p729
aS'/amandaholland/we-had-single-people-get-invisible-sos-for-a-week-and-it-was'
p730
aS'/davidmack/manny-pacquaio-bigot'
p731
aS'/lanesainty/anti-gay-group-attempts-to-stop-a-dance-for-lgbti-teens'
p732
aS'/norawhelan/beth-ditto-debut-clothing-line'
p733
aS'/niralishah/we-are-all-homo-sapiens'
p734
aS'/jemimaskelley/adidas-just-perfectly-shut-down-homophobic-instagram-comment'
p735
aS'/lanesainty/what-happened-to-jordans-beard'
p736
aS'/jamesharness/lady-gaga-just-got-a-huge-david-bowie-tattoo'
p737
aS'/meredithtalusan/16-extraordinary-black-trans-leaders-you-need-to-know'
p738
aS'/azedinf/suggestawaytokillafaggot-is-trending-on-arabic-twitter'
p739
aS'/annakopsky/inexpensive-products-to-help-you-enjoy-sex-a-little-more'
p740
aS'/alisonwillmore/why-benedict-cumberbatch-is-the-best-and-worst-part-of-zoola'
p741
aS'/jtes/trans-woman-settles-suit-after-being-deprived-hormones-in-pr'
p742
aS'/dominicholden/hiv-was-likely-transmitted-on-a-gay-porn-set-cdc-reports'
p743
aS'/dominicholden/police-girls-shot-in-arizona-murder-suicide-appeared-to-be-i'
p744
aS'/meredithtalusan/photo-series-tells-the-stories-of-lgbt-people'
p745
aS'/shannonkeating/movies-with-a-shit-ton-of-lesbian-subtext'
p746
aS'/lanesainty/probably-a-baaaaaaaa-d-idea'
p747
aS'/patrickstrudwick/adidas-tells-sport-stars-we-wont-fire-you-if-you-come-out'
p748
aS'/matwhitehead/theres-no-place-like-homo'
p749
aS'/dominicholden/aids-group-slammed-for-filing-complaint-over-hiv-drug-commer'
p750
aS'/pablovaldivia/hairy-men-thatll-keep-you-warm-this-valentines-day'
p751
aS'/terripous/facetime-makes-the-heart-grow-fonder'
p752
aS'/lanesainty/thats-not-a-gay-manual-this-is-a-gay-manual'
p753
aS'/skarlan/ian-mckellen-got-choked-up-reading-this-beautiful-coming-out'
p754
aS'/kanediep/when-your-relationship-makes-you-better'
p755
aS'/floperry/valentines-cards-only-lesbians-will-understand'
p756
aS'/lanesainty/this-trans-guy-made-a-killer-coming-out-vid'
p757
aS'/lesterfeder/these-are-the-queer-refugees-australia-has-locked-up-on-a-re'
p758
aS'/skarlan/whats-the-most-romantic-way-youve-been-asked-out'
p759
aS'/sophiegadd/perfect-valentines-gifts-for-your-gal-pal'
p760
aS'/lanesainty/principal-gets-praise-after-standing-up-for-trans-kids'
p761
aS'/andreborges/beautiful-and-powerful-pictures-from-mumbais-pride-parade'
p762
aS'/salvadorhernandez/trans-man-suffering-from-aspergers-syndrome-killed-by-arizon'
p763
aS'/davidmack/new-york-governor-announces-steps-to-ban-lgbt-conversion-the'
p764
aS'/skarlan/be-strong-yall'
p765
aS'/meredithtalusan/13-small-hassles-trans-women-did-not-expect-after-transition'
p766
aS'/dominicholden/anti-transgender-bills-in-washington-state-look-doomed-for-n'
p767
aS'/lyapalater/which-tv-lesbian-should-be-your-imaginary-girlfriend'
p768
aS'/lanesainty/this-group-is-furious-that-playschool-might-be-getting-two-g'
p769
aS'/alisoncaporimo/wambach-ftw'
p770
aS'/andyneuenschwander/21-times-lgbt-people-had-the-perfect-comeback'
p771
aS'/hilarywardle/being-a-lesbian-in-your-20s-vs-in-your-30s'
p772
aS'/floperry/facts-every-lesbian-knows-to-be-100-true'
p773
aS'/tellshow/new-podcast-the-tell-show'
p774
aS'/kelseypjones/what-its-like-being-a-gay-man-in-the-military'
p775
aS'/lanesainty/recognising-overseas-same-sex-marriages-would-lead-to-child'
p776
aS'/lanesainty/with-a-rainbow-noose-and-everything'
p777
aS'/skarlan/these-high-school-boys-wore-dresses-to-class-in-protest-of-t'
p778
aS'/dominicholden/a-pastor-is-outraged-that-people-want-to-buy-his-church-to-h'
p779
aS'/lanesainty/largest-ever-survey-of-intersex-australians-shows-high-rates'
p780
aS'/meredithtalusan/26-trans-guys-who-will-make-you-thirsty'
p781
aS'/patrickstrudwick/people-are-so-desperate-for-the-drug-that-blocks-hiv-theyre'
p782
aS'/benhenry/cupid-was-a-homosexual'
p783
aS'/lanesainty/when-shes-not-filming-oitnb-yael-stone-teaches-yoga-to-forme'
p784
aS'/dominicholden/indiana-legislature-gay-rights-bill'
p785
aS'/kateaurthur/as-you-are-is-for-the-no-labels-generation'
p786
aS'/jemimaskelley/i-wish-i-killed-jenny-schecter'
p787
aS'/lesterfeder/indian-supreme-court-agrees-to-reconsider-homosexuality-ruli'
p788
aS'/leticiamiranda/this-transgender-girl-scout-stood-up-to-a-transpho'
p789
aS'/christinacocca/grindr-goes-down'
p790
aS'/virginiahughes/goat-milk-cure'
p791
aS'/chrisgeidner/gay-republicans-take-aim-at-clintons-prior-marriage-equality'
p792
aS'/davidmack/trans-woman-killed-in-texas-shooting'
p793
aS'/meredithtalusan/cissexist-bullshit-translator'
p794
aS'/lesterfeder/this-is-what-the-fight-for-gay-couples-rights-looks-like-in'
p795
aS'/dominicholden/genital-surgery-must-be-provided-to-trans-woman-through-medi'
p796
aS'/lanesainty/oi-tony-listen-up'
p797
aS'/chrisgeidner/justice-department-makes-move-toward-backing-sexual-orientat'
p798
aS'/lanesainty/heres-what-tony-abbott-told-the-adf'
p799
aS'/amandaholland/are-these-women-more-than-just-friends'
p800
aS'/floperry/sex-at-the-beginning-of-the-relationship-vs-after-one-year'
p801
aS'/annakopsky/whats-the-most-annoying-part-about-getting-your-period'
p802
aS'/hayesbrown/a-lawyer-thinks-this-tigers-friendship-with-a-goat-is-gay-pr'
p803
aS'/laurenstrapagiel/these-are-the-lgbt-inclusive-guidelines-some-people-in-alber'
p804
aS'/srishtidixit/manoj-bajpayee-is-incredible-in-the-aligarh-trailer'
p805
aS'/meredithtalusan/this-young-trans-filmmaker-at-sundance'
p806
aS'/lesterfeder/indias-supreme-court-to-revisit-homosexuality-ruling-next-we'
p807
aS'/dominicholden/federal-appeals-court-considers-trans-students-right-to-use'
p808
aS'/jenruggirello/what-its-like-to-kiss-another-woman-for-the-first-time'
p809
aS'/hilarywardle/scottish-lesbian-struggles'
p810
aS'/lanesainty/community-shocked-by-sticker-inciting-violence-against-gay-m'
p811
aS'/skarlan/this-instagram-is-here-to-school-you-on-badass-queer-lady-hi'
p812
aS'/laurenstrapagiel/this-all-girls-school-in-toronto-featured-two-trans-alumni-o'
p813
aS'/dominicholden/women-allege-illegal-strip-searches-while-held-in-immigratio'
p814
aS'/lindseyadler/transgender-athletes-can-now-compete-in-olympics-without-sex'
p815
aS'/sophiegadd/times-tumblr-perfectly-summed-up-lesbian-dating'
p816
aS'/meredithtalusan/my-year-without-makeup'
p817
aS'/vikky/24-things-all-bisexual-people-can-relate-to-y65c'
p818
aS'/shannonkeating/the-year-we-imagined-the-end-of-the-closet'
p819
aS'/lesterfeder/a-new-anti-lgbt-law-appears-to-have-stalled-in-russian-parli'
p820
aS'/paullisicky/to-tell-a-linear-story-would-be-to-tell-a-lie'
p821
aS'/hilarywardle/this-is-what-the-cast-of-the-l-word-look-like-now'
p822
aS'/louispeitzman/how-the-100-became-one-of-tvs-most-radically-queer-shows'
p823
aS'/patrickstrudwick/uk-to-allow-gay-couples-register-marital-status-on-overseas'
p824
aS'/kyled30/frigid-winter-blues-summed-up-by-gifs-of-really-ho-cn8i'
p825
aS'/benhenry/grindr-tribes-unite'
p826
aS'/skarlan/soundtrack-to-my-life'
p827
aS'/sophiegadd/pictures-of-gals-just-being-pals'
p828
aS'/meredithtalusan/created-by-trans-women-starring-trans-women-her-story'
p829
aS'/dominicholden/list-of-schools-allowed-to-discriminate-against-lgbt-student'
p830
aS'/dominicholden/employer-to-pay-transgender-woman-115000-in-job-discriminati'
p831
aS'/jimwaterson/poppersplaining'
p832
aS'/stephaniemlee/a-mans-fitbit-captured-the-exact-moment-he-felt-heartbreak'
p833
aS'/lanesainty/australias-embarrassing-marriage-laws-exposed-by-same-sex-co'
p834
aS'/patrickstrudwick/south-australia-premier-apologises-to-bereaved-british-man-w'
p835
aS'/lesterfeder/egyptian-broadcaster-let-off-the-hook-for-televising-a-bathh'
p836
aS'/patrickstrudwick/this-british-mans-husband-died-on-honeymoon-but-australia-re'
p837
aS'/dominicholden/first-republican-us-senator-co-sponsors-lgbt-equality-act'
p838
aS'/dominicholden/republican-for-montana-governor-anti-lgbt-past'
p839
aS'/krystieyandoli/the-new-season-of-orange-is-the-new-black-looks-intensely-go'
p840
aS'/kanediep/thoughts-everyone-has-before-a-hookup'
p841
aS'/morganthescribe/menstruation-and-gender-inclusivity'
p842
aS'/lanesainty/subject-to-change-features-lgbt-teens'
p843
aS'/skarlan/we-asked-lea-delaria-for-brutally-honest-advice'
p844
aS'/jarettwieselman/netflix-and-chill-long-into-2016'
p845
aS'/norawhelan/now-toronto-body-issue-2016'
p846
aS'/azeenghorayshi/truvada-as-safe-as-aspirin'
p847
aS'/patrickstrudwick/youtube-star-reveals-his-secret-porn-past'
p848
aS'/benhenry/555-come-on-now'
p849
aS'/kevinmcshane/weird-questions-gay-couples-get'
p850
aS'/skarlan/this-beautiful-photo-series-highlights-lgbt-people-of-faith'
p851
aS'/meredithtalusan/first-look-her-story'
p852
aS'/keelyflaherty/heres-the-trailer-for-the-second-season-of-i-am-cait'
p853
aS'/patrickstrudwick/lgbt-christians-react-with-fury-over-the-anglican-communion'
p854
aS'/lanesainty/heres-whats-happening-with-historical-gay-sex-convictions'
p855
aS'/kennymoffitt/this-is-what-its-like-when-a-hookup-becomes-more-than-just-s'
p856
aS'/lesterfeder/us-episcopal-church-suspended-over-same-sex-marriage'
p857
aS'/lesterfeder/russian-parliament-to-take-up-first-anti-lgbt-legislation-si'
p858
aS'/meredithtalusan/meet-the-very-first-trans-woman-on-say-yes-to-the-dress'
p859
aS'/skarlan/ellen-degeneres-named-her-new-puppy-kid-to-get-everyone-off'
p860
aS'/jimwaterson/transgender-rights-report'
p861
aS'/floperry/times-twitter-perfectly-summed-up-being-a-lesbian'
p862
aS'/kelseydarragh/questions-gay-people-have-for-bisexual-people'
p863
aS'/norawhelan/words-to-reconsider-in-2016'
p864
aS'/laurenstrapagiel/2016-census-male-female'
p865
aS'/kaylayandoli/dont-make-me-kill-you-again'
p866
aS'/jimwaterson/cabinet-minister-announces-he-is-gay'
p867
aS'/dominicholden/indiana-govenor-stuns-with-stance-on-debate-over-lgbt-rights'
p868
aS'/skarlan/this-gay-jeopardy-contestant-snapped-back-at-the-gop-for-usi'
p869
aS'/dominicholden/who-invited-kim-davis-to-the-state-of-the-union'
p870
aS'/imaansheikh/nik-dodani'
p871
aS'/michellerennex/slay-charlie-slay'
p872
aS'/leticiamiranda/this-gay-couple-became-a-first-for-the-kiss-cam-at-a-hockey'
p873
aS'/hayesbrown/chinese-tv-digitally-erased-this-actor-because-of-an-lgbt-re'
p874
aS'/skarlan/ziggy-and-aladdin-and-jack-and-the-duke'
p875
aS'/katieheaney/where-do-you-like-to-shop-for-tomboyish-clothing'
p876
aS'/patricksmith/lgbt-people-reveal-why-bowie-is-so-important'
p877
aS'/arianelange/ricky-gervais-caitlyn-jenner-joke'
p878
aS'/nicolaang/this-older-lesbian-couple-has-the-perfect-advice-for-young-c'
p879
aS'/meredithtalusan/tired-trans-tropes-we-need-to-retire-in-2016'
p880
aS'/lyapalater/we-need-to-talk-about-jenna-dewan-tatum-dancing'
p881
aS'/hannahgiorgis/amandla-slayberg'
p882
aS'/skarlan/this-little-boy-asked-for-a-makeup-lesson-for-christmas-and'
p883
aS'/lesterfeder/this-african-president-wants-gay-rights-protected-his-spokes'
p884
aS'/skarlan/me-too-me-too-me-too'
p885
aS'/chrisgeidner/federal-agency-urges-court-to-include-sexual-orientation-und'
p886
aS'/amandaholland/when-you-miss-your-exs-dog'
p887
aS'/katieheaney/18-totally-inspiring-books-with-great-lgbt-lead-characters'
p888
aS'/skarlan/the-prime-minister-of-fiji-wants-gay-citizens-to-get-married'
p889
aS'/virginiahughes/dutch-study-of-prep'
p890
aS'/chrisgeidner/alabama-chief-justice-says-same-sex-marriage-ban-still-in-ef'
p891
aS'/alanwhite/this-woman-is-campaigning-to-allow-trans-women-to-compete-in'
p892
aS'/srishtidixit/speechles'
p893
aS'/lanesainty/trans-passenger-forced-to-remove-prosthetic'
p894
aS'/johnstanton/after-decades-congress-effectively-lifts-ban-on-federally-fu'
p895
aS'/lanesainty/why-is-he-even-commenting'
p896
aS'/annamendoza/were-not-crying-youre-crying'
p897
aS'/louispeitzman/meet-the-stars-of-the-new-rocky-horror-picture-show'
p898
aS'/terripous/defying-gravity-and-expectations'
p899
aS'/skarlan/which-fictional-lesbian-ship-is-currently-ruining-your-life'
p900
aS'/meredithtalusan/the-aftermath-of-jennifer-laude-and-joseph-scott-pemberton'
p901
aS'/lanesainty/37-moments-that-shaped-the-aussie-marriage-debate'
p902
aS'/meredithtalusan/27-awesome-trans-moments-of-2015'
p903
aS'/skarlan/the-year-of-fictional-lesbians'
p904
aS'/skarlan/amiyah-scott-says-on-instagram-she-wouldnt-exploit-herself-f'
p905
aS'/lanesainty/13-moments-of-hope-and-happiness-for-lgbt-australians-in-201'
p906
aS'/devilockwood/breaking-up-with-both-a-person-and-a-place'
p907
aS'/katieheaney/whats-your-favorite-book-with-a-great-lgbt-lead-character'
p908
aS'/skarlan/tyler-ford-answers-your-questions-about-advice-id'
p909
aS'/andreborges/times-india-was-way-way-more-gender-progressive-in-2015'
p910
aS'/benjaminlindsay/the-outs-season-2'
p911
aS'/lesterfeder/the-savior-of-the-world-watched-as-these-trans-women-disappe'
p912
aS'/nicolasmedinamora/new-york-city-now-requires-employers-to-use-trans-peoples-pr'
p913
aS'/tamerragriffin/openly-gay-service-member-killed-in-afghanistan-bombing'
p914
aS'/matwhitehead/blue-yaybourhood'
p915
aS'/dominicholden/kentucky-county-clerk-names-could-be-removed-from-marriage-l'
p916
aS'/laurenstrapagiel/trans-canadians-ftw'
p917
aS'/dominicholden/hrc-bathroom-strategy'
p918
aS'/alisoncaporimo/timeless-vintage-rings'
p919
aS'/shannonrosenberg/where-you-movin-i-said-onto-better-things'
p920
aS'/meredithtalusan/which-transparent-character-are-you'
p921
aS'/mathewguiver/living-like-ina-garten-for-a-week'
p922
aS'/dominicholden/new-fda-policy-relaxes-ban-on-gay-men-donating-blood'
p923
aS'/chrisgeidner/federal-judge-rules-that-sexual-orientation-discrimination-i'
p924
aS'/shannonkeating/best-buzzfeed-lgbt-essays-of-2015'
p925
aS'/nhanratty/transgender-cisgender-couples-talk-about-their-relationships'
p926
aS'/ryanbautista/18-times-please-like-me-season-3-was-absolutely-15ms2'
p927
aS'/dominicholden/senators-government-should-publish-info-on-schools-allowed-t'
p928
aS'/clairedelouraille/podgoals'
p929
aS'/dominicholden/waivers-allowing-christian-schools-to-ban-lgbt-students-spik'
p930
aS'/lesterfeder/these-two-countries-are-deciding-on-the-rights-of-same-sex-c'
p931
aS'/chrisgeidner/massachusetts-court-catholic-school-cant-refuse-to-hire-marr'
p932
aS'/terripous/23-unforgettable-wedding-moments-that-defined-2015'
p933
aS'/imaansheikh/the-gaysi-zine'
p934
aS'/skarlan/here-are-the-worlds-most-popular-hook-up-apps-for-gay-dudes'
p935
aS'/skarlan/here-are-the-worlds-most-popular-hook-up-apps-for-straight-p'
p936
aS'/juliapugachevsky/problems-all-polysexual-people-know-to-be-true'
p937
aS'/benhenry/im-not-losing-messages-im-just-losing-faith'
p938
aS'/jimwaterson/transgender-woman-prison'
p939
aS'/sophiegadd/questions-not-ask-your-queer-relatives-this-christmas'
p940
aS'/skarlan/proud-of-you-2015'
p941
aS'/laurenstrapagiel/canada-wants-to-send-this-gay-man-back-to-the-country-where'
p942
aS'/alexkantrowitz/facebooks-real-name-policy-enforcement-changes-are-here-but'
p943
aS'/alanwhite/people-are-wearing-ties-to-support-a-gay-woman-who-was-assau'
p944
aS'/krishrach/anger-at-women-only-festival-banning-trans-women-who-havent'
p945
aS'/christianzamora/12-days-with-nyle'
p946
aS'/chrisgeidner/supreme-court-grants-relief-to-lesbian-mother-in-alabama-cas'
p947
aS'/gyanyankovich/ruby-rose-was-a-total-style-queen-in-2015'
p948
aS'/shannonrosenberg/you-will-never-be-alone'
p949
aS'/lanesainty/11-weird-comments-australians-made-about-lgbt-issues-in-2015'
p950
aS'/shannonkeating/lesbian-age-differences'
p951
aS'/meredithtalusan/loving-someone-on-the-autism-spectrum'
p952
aS'/davidmack/the-witch-hunt-barring-same-sex-families-from-adopting-child'
p953
aS'/skarlan/this-tattoo-artist-completely-transformed-his-wifes-tattoo-o'
p954
aS'/rachelwmiller/heres-what-its-like-when-mental-illness-affects-a-relationsh'
p955
aS'/allanclarke/these-indigenous-people-open-up-about-their-struggles-with-t'
p956
aS'/skarlan/ask-tyler-ford-anything'
p957
aS'/mattortile/changing-the-water'
p958
aS'/dominicholden/couples-file-court-challenge-to-north-carolina-magistrate-ma'
p959
aS'/katieheaney/24-times-ruby-rose-and-phoebe-dahl-defined-relationship-goal'
p960
aS'/dominicholden/911-audio-hotel-manager-reports-guest-for-being-transgender'
p961
aS'/patrickstrudwick/bbc-threatens-to-suspend-tv-reporter-for-tyson-fury-facebook'
p962
aS'/lesterfeder/jamaicas-law-criminalizing-homosexuality-challenged-in-supre'
p963
aS'/skarlan/power-couple-power-suits'
p964
aS'/loreenordono/national-lesbian-day'
p965
aS'/robstott/battle-of-the-daddies'
p966
aS'/pablovaldivia/should-you-top-or-bottom-tonight'
p967
aS'/dominicholden/unprecedented-20-million-announced-for-transgender-causes'
p968
aS'/lanesainty/heres-what-its-like-to-go-through-gay-conversion-therapy-in'
p969
aS'/skarlan/love-always-wins-swoon'
p970
aS'/juliegerstein/cara-delevingne'
p971
aS'/azeenghorayshi/hiv-black-gay-men-injustice'
p972
aS'/nicolang/how-ibs-helped-me-rethink-my-definition-of-gay-sex'
p973
aS'/skarlan/gender-dysphoria'
p974
aS'/katieheaney/21-best-ladies-in-suits-moments-of-2015'
p975
aS'/meredithtalusan/26-times-trans-people-slayed-in-2015'
p976
aS'/patrickstrudwick/this-is-what-its-like-to-sue-the-church-of-england-for-discr'
p977
aS'/tamerragriffin/chicago-school-district-that-violated-transgender-students-r'
p978
aS'/dominicholden/effort-to-repeal-anchorages-lgbt-rights-law-focuses-on-bathr'
p979
aS'/skarlan/16-times-parents-of-lgbt-kids-failed-so-hard-they-won'
p980
aS'/terripous/serenity-now'
p981
aS'/juliegerstein/we-had-a-bunch-of-women-try-on-suits-to-prove-you-can-too'
p982
aS'/andreborges/this-short-film-about-two-women-talking-about-a-wedding-has'
p983
aS'/lanesainty/transgender-assault-victim-says-she-wasnt-told-about-her-att'
p984
aS'/skarlan/they-ship-it-too'
p985
aS'/dianatourjee/48-hours-on-the-set-of-transparent-season-2'
p986
aS'/christianzamora/batman-v-versatile-superman'
p987
aS'/patrickstrudwick/second-trans-woman-found-dead-in-a-male-prison'
p988
aS'/patrickstrudwick/these-1980s-aids-posters-show-the-desperate-fight-to-save-li'
p989
aS'/meredithtalusan/us-marine-is-guilty'
p990
aS'/steventhrasher/a-black-body-on-trial-the-conviction-of-hiv-positive-tiger-m'
p991
aS'/robstott/its-about-to-get-much-easier-for-gay-men-to-access-the-hiv-p'
p992
aS'/anastasiabee/the-top-10-hottest-real-life-doctors-on-instagram-20duz'
p993
aS'/laurenstrapagiel/and-none-for-dyson-byeeeee'
p994
aS'/lyapalater/cara-delevingne-and-annie-clark-2015-relationship-goals'
p995
aS'/laurenstrapagiel/i-just-want-a-vampire-girlfriend-is-that-so-wrong'
p996
aS'/krystieyandoli/kylie-jenner-talks-about-caitlyn-on-the-ellen-degeneres-show'
p997
aS'/sahilrizwan/being-gay-is-in-vogue'
p998
aS'/aliciamelvillesmith/school-cancels-reading-of-transgender-book'
p999
aS'/victorstepanov/the-russian-edition-of-maxim-published-a-list-of-gays-we-res'
p1000
aS'/skarlan/a-definitive-list-of-all-the-queer-women-you-crushed-hard-on'
p1001
aS'/taylorfreeman/13-lesbian-sorority-confessions'
p1002
aS'/brydieleekennedy/a-users-guide-to-dating-an-open-couple'
p1003
aS'/kateaurthur/therese-wait-carol-spoilers'
p1004
aS'/stephaniefrosch/the-7-lesbians-you-meet-on-tinder'
p1005
aS'/lesterfeder/israel-supreme-court-rejects-family-petition-to-bury-trans-w'
p1006
aS'/alivelez/19-honest-confessions-about-what-its-like-to-date-as-trans'
p1007
aS'/skarlan/this-woman-surprised-her-girlfriend-with-the-news-that-shes'
p1008
aS'/lanesainty/in-south-australia-it-is-bloody-hard-to-start-a-gay-famil'
p1009
aS'/skarlan/we-asked-lgbt-folks-about-not-going-home-for-the-holidays'
p1010
aS'/azeenghorayshi/cdc-pushes-hiv-prevention-pill'
p1011
aS'/patrickstrudwick/this-is-what-its-like-using-dating-apps-when-youre-hiv-posit'
p1012
aS'/lanesainty/this-website-will-be-a-one-stop-shop-for-lgbti-health-in-aus'
p1013
aS'/meredithtalusan/the-upcoming-film-about-black-trans-activist-marsha-p-johnso'
p1014
aS'/sophiegadd/this-heartbreaking-lesbian-plot-that-got-cut-from-love-actua'
p1015
aS'/patrickstrudwick/new-hiv-drug-set-to-cut-long-term-side-effects-of-medication'
p1016
aS'/captainawkward/how-to-handle-awkward-holiday-conversations'
p1017
aS'/westineehn/im-gay-and-disabled-and-fine-thank-you'
p1018
aS'/amandaholland/beware-the-lesbian-parody'
p1019
aS'/skarlan/no-uhaul-needed'
p1020
aS'/meredithtalusan/eddie-redmaynes-complicated-masculinity'
p1021
aS'/benhenry/i-know-a-good-dentist'
p1022
aS'/shannonkeating/carol'
p1023
aS'/patrickstrudwick/worlds-leading-anxiety-expert-offers-treatment-for-people-wh'
p1024
aS'/skarlan/this-gay-drama-teacher-responded-perfectly-when-a-mother-pul'
p1025
aS'/laurenstrapagiel/alberta-has-introduced-a-bill-to-make-sure-trans-people-have'
p1026
aS'/taylorfreeman/the-five-guys-i-dated-before-coming-out'
p1027
aS'/chrisgeidner/chief-justice-likely-helped-set-stage-for-nationwide-marriag'
p1028
aS'/kateaurthur/making-carol-by-todd-haynes'
p1029
aS'/dominicholden/why-are-black-transgender-women-getting-killed-in-detroit'
p1030
aS'/meredithtalusan/the-first-murdered-trans-woman-i-mourned'
p1031
aS'/ilanbenmeir/ted-cruz-obama-administration-support-for-trans-school-aged'
p1032
aS'/megcramer/women-of-the-hour-love-and-sex'
p1033
aS'/lanesainty/germaine-greer-lecture-goes-aheads-despite-protests'
p1034
aS'/albertsamaha/this-is-what-they-did-for-fun-a-modern-day-lynching-in-missi'
p1035
aS'/mattford/nude-british-butts-for-a-good-cause'
p1036
aS'/lesterfeder/snark-diplomacy'
p1037
aS'/lesterfeder/some-top-ranked-companies-on-lgbt-scorecard-work-in-worlds-m'
p1038
aS'/skarlan/a-month-after-coming-out-gus-kenworthy-is-returning-to-the-s'
p1039
aS'/patrickstrudwick/one-in-five-people-admit-to-using-anti-gay-language'
p1040
aS'/lanesainty/this-is-what-happens-at-a-formal-for-young-lgbt-people'
p1041
aS'/persefoni/which-tv-couple-are-you-and-your-partner-174ag'
p1042
aS'/patrickstrudwick/these-men-have-just-become-irelands-first-gay-married-couple'
p1043
aS'/chrisgeidner/justices-asked-to-take-up-case-of-lesbian-parents-adoption-r'
p1044
aS'/patricksmith/blood-painting'
p1045
aS'/lesterfeder/this-gay-refugee-sold-a-kidney-to-escape-iran'
p1046
aS'/meredithtalusan/two-spirit-resilience'
p1047
aS'/skarlan/jim-obergefell-announces-his-endorsement-of-hillary-clinton'
p1048
aS'/rachelzarrell/man-returns-woman-of-the-year-award-caitlyn-jenner'
p1049
aS'/nicolaang/gays-and-lesbians-battle-each-other-while-putting-together-i'
p1050
aS'/skarlan/the-rule-of-threes'
p1051
aS'/meredithtalusan/15-microagressions-trans-people-experience'
p1052
aS'/ryanhatesthis/a-gay-man-shared-this-powerful-facebook-post-after-he-and-hi'
p1053
aS'/sabrinabarr/18-reasons-why-winter-is-the-best-time-of-the-year-1qpyv'
p1054
aS'/maryanngeorgantopoulos/judge-orders-foster-child-removed-from-home-because-parents'
p1055
aS'/meredithtalusan/janet-mock-grace-dunham-women-of-the-hour'
p1056
aS'/lanesainty/stop-calling-us-bigots-says-the-acl'
p1057
aS'/robstott/this-newspaper-is-smacking-down-conchita-wursts-haters'
p1058
aS'/lesterfeder/ukraine-just-passed-protections-for-lgbt-employees'
p1059
aS'/keelyflaherty/a-new-web-series-for-ladies'
p1060
aS'/caitlinjinks/ruby-rose-looks-so-goddamn-good'
p1061
aS'/skarlan/gird-your-flannels-ladies'
p1062
aS'/lesterfeder/two-women-used-a-loophole-to-get-married-and-now-may-face-pr'
p1063
aS'/annaborges/pie-chart-bi-chart'
p1064
aS'/kristinharris/caitlyn-jenner-the-power-of-the-woman-hasnt-been-unleashed'
p1065
aS'/rachelwmiller/mental-illness-in-relationships-marriage'
p1066
aS'/lanesainty/this-is-how-chaz-bono-helped-courtney-act-find-peace-with-ge'
p1067
aS'/davidmack/out-obama'
p1068
aS'/skarlan/master-of-denise'
p1069
aS'/meredithtalusan/these-beautiful-pieces-of-trans-artwork'
p1070
aS'/laurenstrapagiel/this-photo-of-trudeau-with-an-openly-gay-mps-family-is-blowi'
p1071
aS'/zoewilkinsons/on-trans-motherhood'
p1072
aS'/hughryan/taylor-mac-hir'
p1073
aS'/hannahgiorgis/there-is-a-complexity-to-struggle'
p1074
aS'/laurenstrapagiel/ontario-just-made-it-easier-for-trans-people-to-get-a-referr'
p1075
aS'/sahilrizwan/how-to-save-a-channel'
p1076
aS'/krishrach/a-town-is-arguing-about-whether-this-stature-of-two-gold-dol'
p1077
aS'/meredithtalusan/we-just-need-to-pee'
p1078
aS'/robstott/sam-burgess-is-back-thank-god'
p1079
aS'/samstryker/cher-called-lady-gaga-and-i-have-some-questions'
p1080
aS'/briangalindo/21-honest-confessions-of-people-living-with-hiv'
p1081
aS'/laurenstrapagiel/bc-is-finally-moving-this-trans-inmate-to-a-female-facility'
p1082
aS'/taylorfreeman/when-you-dont-know-if-shes-a-lesbian-or-hipster'
p1083
aS'/dominicholden/ben-carson-proposes-separate-restrooms-for-transgender-peopl'
p1084
aS'/skarlan/18-moments-that-are-too-real-for-anyone-whos-not-100-out-to'
p1085
aS'/kelseypjones/queer-men-watch-queer-as-folk-for-the-first-time'
p1086
aS'/kristinrusso/sex-is-a-funny-word'
p1087
aS'/dominicholden/nfl-will-keep-super-bowl-in-houston-despite-city-repealing-l'
p1088
aS'/terripous/carrie-brownstein-officiated-a-wedding-at-a-stop-on-her-book'
p1089
aS'/mattford/i-need-several-gallons-of-water'
p1090
aS'/jimdalrympleii/salt-lake-city-appears-to-have-elected-its-first-openly-gay'
p1091
aS'/dominicholden/early-voting-results-posted-for-houstons-lgbt-rights-law'
p1092
aS'/annaborges/i-am-just-bi-for-the-puns'
p1093
aS'/tamerragriffin/federal-authorities-find-chicago-school-district-violated-tr'
p1094
aS'/meredithtalusan/after-my-transition-porn-fantasy'
p1095
aS'/kelseypjones/lesbians-watch-the-l-word-for-the-first-time'
p1096
aS'/meredithtalusan/7-reasons-htgawm-trans'
p1097
aS'/claudiarestrepo/lesbian-bride-of-frankenstein'
p1098
aS'/rachelwmiller/wedding-ideas-to-fall-in-love-with-right-now'
p1099
aS'/skarlan/story-of-our-lives'
p1100
aS'/kevinmcshane/weird-things-gay-couples-do'
p1101
aS'/patrickstrudwick/northern-ireland-blocks-same-sex-marriage-for-the-fifth-time'
p1102
aS'/chrislam/safety-first'
p1103
aS'/caitlinjinks/everyone-loves-ruby'
p1104
aS'/lauriepenny/how-to-be-a-genderqueer-feminist'
p1105
aS'/jpbrammer/when-my-anti-gay-bully-hit-me-up-on-a-gay-dating-app'
p1106
aS'/meredithtalusan/trans-women-halloween'
p1107
aS'/lesterfeder/pedophilia-claim-exposes-rift-in-the-pro-family-movement'
p1108
aS'/alexkantrowitz/facebook-is-making-enforcement-changes-to-its-real-names-pol'
p1109
aS'/chrisgeidner/how-the-clinton-white-house-handled-doma-in-1996-in-their-ow'
p1110
aS'/caseygueren/almost-everyone-has-herpes'
p1111
aS'/fionarutherford/judge-dismisses-transgender-womans-appeal'
p1112
aS'/dominicholden/draft-hillary-clinton-announces-she-backs-houston-equal-righ'
p1113
aS'/skarlan/is-that-beanie-something-or-nothing-at-all'
p1114
aS'/dominicholden/sally-field-calls-ads-about-men-in-womens-restrooms-evil-lie'
p1115
aS'/andreborges/a-gay-man-was-beaten-and-assaulted-and-the-mumbai-police-act'
p1116
aS'/mbvd/police-open-investigation-after-cop-arrests-lesbian-couple-f'
p1117
aS'/chrisgeidner/obama-administration-supports-transgender-student-in-federal'
p1118
aS'/skarlan/legends-never-die'
p1119
aS'/caseygueren/not-lame-sex-tips'
p1120
aS'/stephaniemcneal/a-transgender-woman-comes-out-to-her-mom-with-alzheimers-eve'
p1121
aS'/louispeitzman/camp-2003-oral-history'
p1122
aS'/skarlan/this-web-series-is-helping-trans-teens-redefine-what-makes-t'
p1123
aS'/dominicholden/toilet-company-gives-5000-to-toilet-obsessed-anti-lgbt-campa'
p1124
aS'/skarlan/people-shared-their-personal-intersexstories-on-twitter-for'
p1125
aS'/richardbeech/its-time'
p1126
aS'/meredithtalusan/this-trans-guy-first-chin-hair'
p1127
aS'/rossalynwarren/people-are-trying-to-stop-a-transgender-woman-from-being-sen'
p1128
aS'/leticiamiranda/intersex-activist-denied-a-passport-sues-the-us-government'
p1129
aS'/lanesainty/germaine-greer-says-caitlyn-jenner-wanted-the-limelight'
p1130
aS'/shayanroy/this-transgender-woman-shared-photos-of-her-horrifying-attac'
p1131
aS'/lanesainty/bar-forced-to-apologise-after-outrage-over-no-poofter-drinks'
p1132
aS'/dominicholden/houston-nfl-team-owner-rescinds-10000-donation-to-anti-lgbt'
p1133
aS'/shannonkeating/lea-delaria-career-tour'
p1134
aS'/dominicholden/new-york-governor-plans-to-ban-transgender-discrimination'
p1135
aS'/skarlan/no-script-no-rules-just-love'
p1136
aS'/skarlan/top-ranked-olympic-skier-gus-kenworthy-comes-out-as-gay-on-e'
p1137
aS'/kevinnadal/becoming-filipino-american'
p1138
aS'/sydneyscott/laverne-cox-will-play-dr-frank-n-furter-in-rocky-horror-rebo'
p1139
aS'/frant4e7b49fe6/where-are-all-the-queer-superheroes'
p1140
aS'/meredithtalusan/13-things-transgender-women-are-sick-of-hearing'
p1141
aS'/dominicholden/transgender-student-asks-for-new-judge-in-restroom-case'
p1142
aS'/norbertobriceno/quizas-quizas-quizas'
p1143
aS'/lanesainty/this-is-for-everyone-who-doesnt-know-about-golden-gaytimes'
p1144
aS'/samimain/hannah-hart-volunteer-series'
p1145
aS'/hillarylevine/we-asked-couples-try-each-others-hobbies-and-it-was-pretty-p'
p1146
aS'/imaansheikh/rainbow-revolution'
p1147
aS'/dominicholden/this-ad-claims-men-will-follow-girls-into-restroom-stalls-if'
p1148
aS'/chrisgeidner/former-federal-worker-sues-alleging-anti-gay-bias-at-aviatio'
p1149
aS'/ryanhatesthis/rock-hard-will-power'
p1150
aS'/jordanshalhoub/lesbian-women-ask-gay-men-questions-we-all-want-to-know'
p1151
aS'/skarlan/twenty-questions-with-cameron-esposito-and-rhea-butcher'
p1152
aS'/jordanshalhoub/gay-men-ask-lesbian-women-questions-we-all-want-to-know'
p1153
aS'/meredithtalusan/6-trans-womens-memoirs-you-need-to-read'
p1154
aS'/kateaurthur/how-emma-donoghue-adapted-room'
p1155
aS'/kyled30/i-went-to-new-york-all-alone-to-love-myself-and-it-cn8i'
p1156
aS'/meredithtalusan/a-brief-history-of-memoirs-by-trans-women'
p1157
aS'/dominicholden/transgender-woman-shot-dead-in-maryland-shopping-center'
p1158
a.